
H:/E_325/Lab/nios_alarm_clock/main.elf:     file format elf32-littlenios2
H:/E_325/Lab/nios_alarm_clock/main.elf
architecture: nios2, flags 0x00000112:
EXEC_P, HAS_SYMS, D_PAGED
start address 0x00000168

Program Header:
    LOAD off    0x00001000 vaddr 0x00000000 paddr 0x00000000 align 2**12
         filesz 0x00000020 memsz 0x00000020 flags r-x
    LOAD off    0x00001020 vaddr 0x00000020 paddr 0x00000020 align 2**12
         filesz 0x0000201c memsz 0x0000201c flags r-x
    LOAD off    0x0000303c vaddr 0x0000203c paddr 0x00003760 align 2**12
         filesz 0x00001724 memsz 0x00001724 flags rw-
    LOAD off    0x00004e84 vaddr 0x00004e84 paddr 0x00004e84 align 2**12
         filesz 0x00000000 memsz 0x00000148 flags rw-

Sections:
Idx Name          Size      VMA       LMA       File off  Algn
  0 .entry        00000020  00000000  00000000  00001000  2**5
                  CONTENTS, ALLOC, LOAD, READONLY, CODE
  1 .exceptions   00000148  00000020  00000020  00001020  2**2
                  CONTENTS, ALLOC, LOAD, READONLY, CODE
  2 .text         00001e38  00000168  00000168  00001168  2**2
                  CONTENTS, ALLOC, LOAD, READONLY, CODE
  3 .rodata       0000009c  00001fa0  00001fa0  00002fa0  2**2
                  CONTENTS, ALLOC, LOAD, READONLY, DATA
  4 .rwdata       00001724  0000203c  00003760  0000303c  2**2
                  CONTENTS, ALLOC, LOAD, DATA, SMALL_DATA
  5 .bss          00000148  00004e84  00004e84  00004e84  2**2
                  ALLOC, SMALL_DATA
  6 .comment      00000026  00000000  00000000  00004760  2**0
                  CONTENTS, READONLY
  7 .debug_aranges 00000558  00000000  00000000  00004788  2**3
                  CONTENTS, READONLY, DEBUGGING
  8 .debug_pubnames 00000aa2  00000000  00000000  00004ce0  2**0
                  CONTENTS, READONLY, DEBUGGING
  9 .debug_info   00007e52  00000000  00000000  00005782  2**0
                  CONTENTS, READONLY, DEBUGGING
 10 .debug_abbrev 00002963  00000000  00000000  0000d5d4  2**0
                  CONTENTS, READONLY, DEBUGGING
 11 .debug_line   0000668b  00000000  00000000  0000ff37  2**0
                  CONTENTS, READONLY, DEBUGGING
 12 .debug_frame  00000920  00000000  00000000  000165c4  2**2
                  CONTENTS, READONLY, DEBUGGING
 13 .debug_str    00001932  00000000  00000000  00016ee4  2**0
                  CONTENTS, READONLY, DEBUGGING
 14 .debug_loc    00001b15  00000000  00000000  00018816  2**0
                  CONTENTS, READONLY, DEBUGGING
 15 .debug_alt_sim_info 00000020  00000000  00000000  0001a32c  2**2
                  CONTENTS, READONLY, DEBUGGING
 16 .debug_ranges 00000180  00000000  00000000  0001a350  2**3
                  CONTENTS, READONLY, DEBUGGING
 17 .thread_model 00000003  00000000  00000000  0001c271  2**0
                  CONTENTS, READONLY
 18 .cpu          0000000c  00000000  00000000  0001c274  2**0
                  CONTENTS, READONLY
 19 .qsys         00000001  00000000  00000000  0001c280  2**0
                  CONTENTS, READONLY
 20 .simulation_enabled 00000001  00000000  00000000  0001c281  2**0
                  CONTENTS, READONLY
 21 .stderr_dev   00000008  00000000  00000000  0001c282  2**0
                  CONTENTS, READONLY
 22 .stdin_dev    00000008  00000000  00000000  0001c28a  2**0
                  CONTENTS, READONLY
 23 .stdout_dev   00000008  00000000  00000000  0001c292  2**0
                  CONTENTS, READONLY
 24 .sopc_system_name 0000000b  00000000  00000000  0001c29a  2**0
                  CONTENTS, READONLY
 25 .jdi          000050cc  00000000  00000000  0001c2a5  2**0
                  CONTENTS, READONLY
 26 .sopcinfo     000520ec  00000000  00000000  00021371  2**0
                  CONTENTS, READONLY
SYMBOL TABLE:
00000000 l    d  .entry	00000000 .entry
00000020 l    d  .exceptions	00000000 .exceptions
00000168 l    d  .text	00000000 .text
00001fa0 l    d  .rodata	00000000 .rodata
0000203c l    d  .rwdata	00000000 .rwdata
00004e84 l    d  .bss	00000000 .bss
00000000 l    d  .comment	00000000 .comment
00000000 l    d  .debug_aranges	00000000 .debug_aranges
00000000 l    d  .debug_pubnames	00000000 .debug_pubnames
00000000 l    d  .debug_info	00000000 .debug_info
00000000 l    d  .debug_abbrev	00000000 .debug_abbrev
00000000 l    d  .debug_line	00000000 .debug_line
00000000 l    d  .debug_frame	00000000 .debug_frame
00000000 l    d  .debug_str	00000000 .debug_str
00000000 l    d  .debug_loc	00000000 .debug_loc
00000000 l    d  .debug_alt_sim_info	00000000 .debug_alt_sim_info
00000000 l    d  .debug_ranges	00000000 .debug_ranges
000001a0 l       .text	00000000 alt_after_alt_main
00000000 l    df *ABS*	00000000 alt_irq_handler.c
00000000 l    df *ABS*	00000000 hex.c
00000000 l    df *ABS*	00000000 main.c
00000204 l     F .text	00000020 handle_button_interrupts
00000000 l    df *ABS*	00000000 timers.c
00000000 l    df *ABS*	00000000 util.c
00000000 l    df *ABS*	00000000 lib2-divmod.c
00000700 l     F .text	0000007c udivmodsi4
00000000 l    df *ABS*	00000000 memcpy.c
00000000 l    df *ABS*	00000000 alt_irq_register.c
00000000 l    df *ABS*	00000000 alt_irq_vars.c
00000000 l    df *ABS*	00000000 alt_load.c
00000000 l    df *ABS*	00000000 alt_main.c
00000000 l    df *ABS*	00000000 alt_sys_init.c
00002050 l     O .rwdata	00001060 JTAGUART
000030b0 l     O .rwdata	0000002c LCD
000030dc l     O .rwdata	0000002c KEY
00003108 l     O .rwdata	0000002c SevenSeg30
00003134 l     O .rwdata	0000002c SevenSeg74
00003160 l     O .rwdata	0000002c SW
00000000 l    df *ABS*	00000000 altera_avalon_jtag_uart_fd.c
00000000 l    df *ABS*	00000000 altera_avalon_jtag_uart_init.c
00000c6c l     F .text	00000054 altera_avalon_jtag_uart_timeout
00000d38 l     F .text	00000134 altera_avalon_jtag_uart_irq
00000000 l    df *ABS*	00000000 altera_avalon_jtag_uart_ioctl.c
00000000 l    df *ABS*	00000000 altera_avalon_jtag_uart_read.c
00000000 l    df *ABS*	00000000 altera_avalon_jtag_uart_write.c
00000000 l    df *ABS*	00000000 altera_avalon_timer_sc.c
00001208 l     F .text	0000003c alt_avalon_timer_sc_irq
00000000 l    df *ABS*	00000000 altera_up_avalon_character_lcd.c
00000000 l    df *ABS*	00000000 alt_alarm_start.c
00000000 l    df *ABS*	00000000 alt_close.c
00000000 l    df *ABS*	00000000 alt_dcache_flush_all.c
00000000 l    df *ABS*	00000000 alt_dev.c
000016c4 l     F .text	00000008 alt_dev_null_write
00000000 l    df *ABS*	00000000 alt_dev_llist_insert.c
00000000 l    df *ABS*	00000000 alt_errno.c
00000000 l    df *ABS*	00000000 alt_find_dev.c
00000000 l    df *ABS*	00000000 alt_icache_flush_all.c
00000000 l    df *ABS*	00000000 alt_io_redirect.c
000017cc l     F .text	00000064 alt_open_fd
00000000 l    df *ABS*	00000000 alt_open.c
00000000 l    df *ABS*	00000000 alt_release_fd.c
00000000 l    df *ABS*	00000000 alt_tick.c
00000000 l    df *ABS*	00000000 altera_nios2_qsys_irq.c
00000000 l    df *ABS*	00000000 alt_find_file.c
00000000 l    df *ABS*	00000000 alt_get_fd.c
00000000 l    df *ABS*	00000000 alt_icache_flush.c
00000000 l    df *ABS*	00000000 exit.c
00000000 l    df *ABS*	00000000 impure.c
00003334 l     O .rwdata	00000400 impure_data
00000000 l    df *ABS*	00000000 int_errno.c
00000000 l    df *ABS*	00000000 memcmp.c
00000000 l    df *ABS*	00000000 strlen.c
00000000 l    df *ABS*	00000000 __call_atexit.c
00001dd4 l     F .text	00000004 register_fini
00000000 l    df *ABS*	00000000 alt_exit.c
000001d0 g     F .text	00000034 write_current_time_to_bot_row
00000a6c g     F .text	00000050 alt_main
00004ecc g     O .bss	00000100 alt_irq
00003760 g       *ABS*	00000000 __flash_rwdata_start
00001308 g     F .text	00000010 alt_up_character_lcd_send_cmd
0000203c g     O .rwdata	00000011 top_row
00004eb8 g     O .bss	00000011 bot_row
000004d4 g     F .text	00000018 timer1_isr
00000000  w      *UND*	00000000 __errno
00001244 g     F .text	0000001c get_DDRAM_addr
00000000 g     F .entry	0000001c __reset
00004e94 g     O .bss	00000004 edge_capture
00000020 g       *ABS*	00000000 __flash_exceptions_start
00004eb4 g     O .bss	00000004 errno
00004ea4 g     O .bss	00000004 alt_argv
0000b734 g       *ABS*	00000000 _gp
000005b8 g     F .text	0000013c update_time
000031b4 g     O .rwdata	00000180 alt_fd_list
000004ec g     F .text	0000000c stop_timer_0
000004c8 g     F .text	0000000c stop_timer_1
0000173c g     F .text	00000070 alt_find_dev
0000084c g     F .text	000000a0 memcpy
000012d8 g     F .text	00000020 alt_up_character_lcd_write_fd
00001830 g     F .text	00000098 alt_io_redirect
00000564 g     F .text	00000054 init_timer_0
000001a4 g     F .text	00000014 hex_off
000002c8 g     F .text	0000005c handle_key_press
00000ee0 g     F .text	00000168 altera_avalon_jtag_uart_read
0000083c g     F .text	00000008 __udivsi3
00001c78 g     F .text	0000003c alt_icache_flush
000006f4 g     F .text	00000004 update_hour
00003748 g     O .rwdata	00000004 alt_max_fd
000008ec g     F .text	000000bc alt_irq_register
0000375c g     O .rwdata	00000004 _global_impure_ptr
00004fcc g       *ABS*	00000000 __bss_end
00001a9c g     F .text	000000ac alt_tick
00001a68 g     F .text	00000034 alt_alarm_stop
00004e9c g     O .bss	00000004 alt_irq_active
000000ec g     F .exceptions	0000007c alt_irq_handler
0000318c g     O .rwdata	00000028 alt_dev_null
00004e98 g     O .bss	00000004 char_lcd_dev
00001318 g     F .text	0000001c alt_up_character_lcd_cursor_blink_on
000001b8 g     F .text	00000018 hex_on
000016c0 g     F .text	00000004 alt_dcache_flush_all
00003760 g       *ABS*	00000000 __ram_rwdata_end
00000510 g     F .text	00000054 init_timer_1
00003740 g     O .rwdata	00000008 alt_dev_list
0000203c g       *ABS*	00000000 __ram_rodata_end
00000844 g     F .text	00000008 __umodsi3
00004fcc g       *ABS*	00000000 end
00000cc0 g     F .text	00000078 altera_avalon_jtag_uart_init
00006000 g       *ABS*	00000000 __alt_stack_pointer
000011c4 g     F .text	00000044 alt_avalon_timer_sc_init
00001048 g     F .text	0000017c altera_avalon_jtag_uart_write
000012ac g     F .text	0000002c alt_up_character_lcd_write
00001dd8 g     F .text	000001b0 __call_exitprocs
00000168 g     F .text	0000003c _start
00004eac g     O .bss	00000004 _alt_tick_rate
00004eb0 g     O .bss	00000004 _alt_nticks
00000adc g     F .text	000000c0 alt_sys_init
000013bc g     F .text	00000090 alt_up_character_lcd_shift_display
00001350 g     F .text	0000006c alt_up_character_lcd_erase_pos
00000c34 g     F .text	00000038 altera_avalon_jtag_uart_close
0000203c g       *ABS*	00000000 __ram_rwdata_start
00001fa0 g       *ABS*	00000000 __ram_rodata_start
00000c0c g     F .text	00000028 altera_avalon_jtag_uart_read_fd
00001c0c g     F .text	0000006c alt_get_fd
00001cec g     F .text	00000074 memcmp
00000bbc g     F .text	00000028 altera_avalon_jtag_uart_close_fd
00004fcc g       *ABS*	00000000 __alt_stack_base
00000b9c g     F .text	00000020 altera_avalon_jtag_uart_ioctl_fd
00004e8c g     O .bss	00000004 tenths
00001b50 g     F .text	000000bc alt_find_file
000016cc g     F .text	00000070 alt_dev_llist_insert
000006fc g     F .text	00000004 update_sec
00004e84 g       *ABS*	00000000 __bss_start
00000324 g     F .text	000001a4 main
00000000 g       *ABS*	00000000 __alt_mem_RAM
00004ea8 g     O .bss	00000004 alt_envp
00000be4 g     F .text	00000028 altera_avalon_jtag_uart_write_fd
0000144c g     F .text	00000090 alt_up_character_lcd_shift_cursor
0000374c g     O .rwdata	00000004 alt_errno
00004e88 g     O .bss	00000004 seconds
00000224 g     F .text	000000a4 reset_display
0000077c g     F .text	00000060 __divsi3
00001530 g     F .text	00000020 alt_up_character_lcd_open_dev
000012f8 g     F .text	00000010 alt_up_character_lcd_init
00001fa0 g       *ABS*	00000000 __flash_rodata_start
00000abc g     F .text	00000020 alt_irq_init
00001a44 g     F .text	00000024 alt_release_fd
00001334 g     F .text	0000001c alt_up_character_lcd_cursor_off
00003758 g     O .rwdata	00000004 _impure_ptr
00004ea0 g     O .bss	00000004 alt_argc
00000020 g       .exceptions	00000000 alt_irq_entry
00003738 g     O .rwdata	00000008 alt_fs_list
00000020 g       *ABS*	00000000 __ram_exceptions_start
00003760 g       *ABS*	00000000 _edata
00004fcc g       *ABS*	00000000 _end
00000168 g       *ABS*	00000000 __ram_exceptions_end
00000e6c g     F .text	00000074 altera_avalon_jtag_uart_ioctl
00001b48 g     F .text	00000008 altera_nios2_qsys_irq_init
00001cb4 g     F .text	00000038 exit
000007dc g     F .text	00000060 __modsi3
00006000 g       *ABS*	00000000 __alt_data_end
00000020 g     F .exceptions	00000000 alt_exception
00001260 g     F .text	0000004c alt_up_character_lcd_string
00001f88 g     F .text	00000014 _exit
00001550 g     F .text	00000094 alt_alarm_start
00004e84 g     O .bss	00000004 minutes
00001d60 g     F .text	00000074 strlen
000018c8 g     F .text	0000017c open
000004f8 g     F .text	00000018 timer0_isr
000017ac g     F .text	00000020 alt_icache_flush_all
000006f8 g     F .text	00000004 update_min
000014dc g     F .text	00000054 alt_up_character_lcd_set_cursor_pos
00003734 g     O .rwdata	00000004 alt_priority_mask
00003750 g     O .rwdata	00000008 alt_alarm_list
000015e4 g     F .text	000000dc close
000009a8 g     F .text	000000c4 alt_load
00004e90 g     O .bss	00000004 half_second
00000000  w      *UND*	00000000 free



Disassembly of section .entry:

00000000 <__reset>:
#if NIOS2_ICACHE_SIZE > 0 && defined(ALT_ALLOW_CODE_AT_RESET) && !defined(ALT_SIM_OPTIMIZE)
    /* Assume the instruction cache size is always a power of two. */
#if NIOS2_ICACHE_SIZE > 0x8000
    movhi r2, %hi(NIOS2_ICACHE_SIZE)
#else
    movui r2, NIOS2_ICACHE_SIZE
   0:	00840014 	movui	r2,4096
#endif

0:
    initi r2
   4:	1001483a 	initi	r2
    addi r2, r2, -NIOS2_ICACHE_LINE_SIZE
   8:	10bff804 	addi	r2,r2,-32
    bgt r2, zero, 0b
   c:	00bffd16 	blt	zero,r2,4 <__reset+0x4>
 * Jump to the _start entry point in the .text section if reset code
 * is allowed or if optimizing for RTL simulation.
 */
#if defined(ALT_ALLOW_CODE_AT_RESET) || defined(ALT_SIM_OPTIMIZE)
    /* Jump to the _start entry point in the .text section. */
    movhi r1, %hi(_start)
  10:	00400034 	movhi	at,0
    ori r1, r1, %lo(_start)
  14:	08405a14 	ori	at,at,360
    jmp r1
  18:	0800683a 	jmp	at
  1c:	00000000 	call	0 <__reset>

Disassembly of section .exceptions:

00000020 <alt_exception>:
         * Process an exception.  For all exceptions we must preserve all
         * caller saved registers on the stack (See the Nios2 ABI
         * documentation for details).
         */

        addi  sp, sp, -76
  20:	deffed04 	addi	sp,sp,-76

#endif

#endif

        stw   ra,  0(sp)
  24:	dfc00015 	stw	ra,0(sp)
        /*
         * Leave a gap in the stack frame at 4(sp) for the muldiv handler to
         * store zero into.
         */

        stw   r1,   8(sp)
  28:	d8400215 	stw	at,8(sp)
        stw   r2,  12(sp)
  2c:	d8800315 	stw	r2,12(sp)
        stw   r3,  16(sp)
  30:	d8c00415 	stw	r3,16(sp)
        stw   r4,  20(sp)
  34:	d9000515 	stw	r4,20(sp)
        stw   r5,  24(sp)
  38:	d9400615 	stw	r5,24(sp)
        stw   r6,  28(sp)
  3c:	d9800715 	stw	r6,28(sp)
        stw   r7,  32(sp)
  40:	d9c00815 	stw	r7,32(sp)

        rdctl r5, estatus
  44:	000b307a 	rdctl	r5,estatus

        stw   r8,  36(sp)
  48:	da000915 	stw	r8,36(sp)
        stw   r9,  40(sp)
  4c:	da400a15 	stw	r9,40(sp)
        stw   r10, 44(sp)
  50:	da800b15 	stw	r10,44(sp)
        stw   r11, 48(sp)
  54:	dac00c15 	stw	r11,48(sp)
        stw   r12, 52(sp)
  58:	db000d15 	stw	r12,52(sp)
        stw   r13, 56(sp)
  5c:	db400e15 	stw	r13,56(sp)
        stw   r14, 60(sp)
  60:	db800f15 	stw	r14,60(sp)
        stw   r15, 64(sp)
  64:	dbc01015 	stw	r15,64(sp)
        /*
         * ea-4 contains the address of the instruction being executed
         * when the exception occured. For interrupt exceptions, we will
         * will be re-issue the isntruction. Store it in 72(sp)
         */
        stw   r5,  68(sp)  /* estatus */
  68:	d9401115 	stw	r5,68(sp)
        addi  r15, ea, -4  /* instruction that caused exception */
  6c:	ebffff04 	addi	r15,ea,-4
        stw   r15,  72(sp)
  70:	dbc01215 	stw	r15,72(sp)
#else
        /*
         * Test to see if the exception was a software exception or caused 
         * by an external interrupt, and vector accordingly.
         */
        rdctl r4, ipending
  74:	0009313a 	rdctl	r4,ipending
        andi  r2, r5, 1
  78:	2880004c 	andi	r2,r5,1
        beq   r2, zero, .Lnot_irq
  7c:	10000326 	beq	r2,zero,8c <alt_exception+0x6c>
        beq   r4, zero, .Lnot_irq
  80:	20000226 	beq	r4,zero,8c <alt_exception+0x6c>
        /*
         * Now that all necessary registers have been preserved, call 
         * alt_irq_handler() to process the interrupts.
         */

        call alt_irq_handler
  84:	00000ec0 	call	ec <alt_irq_handler>

        .section .exceptions.irqreturn, "xa"

        br    .Lexception_exit
  88:	00000306 	br	98 <alt_exception+0x78>
         * upon completion, so we write ea (address of instruction *after*
         * the one where the exception occured) into 72(sp). The actual
         * instruction that caused the exception is written in r2, which these
         * handlers will utilize.
         */
        stw   ea,  72(sp)  /* Don't re-issue */
  8c:	df401215 	stw	ea,72(sp)
        ldw   r2, -4(ea)   /* Instruction that caused exception */
  90:	e8bfff17 	ldw	r2,-4(ea)
#ifdef NIOS2_HAS_DEBUG_STUB
       /*
        *  Either tell the user now (if there is a debugger attached) or go into
        *  the debug monitor which will loop until a debugger is attached.
        */
        break
  94:	003da03a 	break	0
        /* 
         * Restore the saved registers, so that all general purpose registers 
         * have been restored to their state at the time the interrupt occured.
         */

        ldw   r5,  68(sp)
  98:	d9401117 	ldw	r5,68(sp)
        ldw   ea,  72(sp)  /* This becomes the PC once eret is executed */
  9c:	df401217 	ldw	ea,72(sp)
        ldw   ra,   0(sp)
  a0:	dfc00017 	ldw	ra,0(sp)

        wrctl estatus, r5
  a4:	2801707a 	wrctl	estatus,r5

        ldw   r1,   8(sp)
  a8:	d8400217 	ldw	at,8(sp)
        ldw   r2,  12(sp)
  ac:	d8800317 	ldw	r2,12(sp)
        ldw   r3,  16(sp)
  b0:	d8c00417 	ldw	r3,16(sp)
        ldw   r4,  20(sp)
  b4:	d9000517 	ldw	r4,20(sp)
        ldw   r5,  24(sp)
  b8:	d9400617 	ldw	r5,24(sp)
        ldw   r6,  28(sp)
  bc:	d9800717 	ldw	r6,28(sp)
        ldw   r7,  32(sp)
  c0:	d9c00817 	ldw	r7,32(sp)
#ifdef ALT_STACK_CHECK
        ldw   et, %gprel(alt_exception_old_stack_limit)(gp)
#endif
#endif

        ldw   r8,  36(sp)
  c4:	da000917 	ldw	r8,36(sp)
        ldw   r9,  40(sp)
  c8:	da400a17 	ldw	r9,40(sp)
        ldw   r10, 44(sp)
  cc:	da800b17 	ldw	r10,44(sp)
        ldw   r11, 48(sp)
  d0:	dac00c17 	ldw	r11,48(sp)
        ldw   r12, 52(sp)
  d4:	db000d17 	ldw	r12,52(sp)
        ldw   r13, 56(sp)
  d8:	db400e17 	ldw	r13,56(sp)
        ldw   r14, 60(sp)
  dc:	db800f17 	ldw	r14,60(sp)
        ldw   r15, 64(sp)
  e0:	dbc01017 	ldw	r15,64(sp)
#endif

        ldw   sp,  76(sp)

#else
        addi  sp, sp, 76
  e4:	dec01304 	addi	sp,sp,76

        /*
         * Return to the interrupted instruction.
         */

        eret
  e8:	ef80083a 	eret

000000ec <alt_irq_handler>:
 * instruction is present if the macro ALT_CI_INTERRUPT_VECTOR defined.
 */

void alt_irq_handler (void) __attribute__ ((section (".exceptions")));
void alt_irq_handler (void)
{
  ec:	defffe04 	addi	sp,sp,-8
  f0:	dfc00115 	stw	ra,4(sp)
  f4:	dc000015 	stw	r16,0(sp)
#ifndef NIOS2_EIC_PRESENT
static ALT_INLINE alt_u32 ALT_ALWAYS_INLINE alt_irq_pending (void)
{
  alt_u32 active;

  NIOS2_READ_IPENDING (active);
  f8:	000d313a 	rdctl	r6,ipending
  fc:	04000034 	movhi	r16,0
 100:	8413b304 	addi	r16,r16,20172
     * called to clear the interrupt condition.
     */

    do
    {
      if (active & mask)
 104:	3080004c 	andi	r2,r6,1
 108:	1005003a 	cmpeq	r2,r2,zero
 10c:	10000a1e 	bne	r2,zero,138 <alt_irq_handler+0x4c>
 110:	000b883a 	mov	r5,zero
      { 
#ifdef ALT_ENHANCED_INTERRUPT_API_PRESENT
        alt_irq[i].handler(alt_irq[i].context); 
#else
        alt_irq[i].handler(alt_irq[i].context, i); 
 114:	280490fa 	slli	r2,r5,3
 118:	1405883a 	add	r2,r2,r16
 11c:	10c00017 	ldw	r3,0(r2)
 120:	11000117 	ldw	r4,4(r2)
 124:	183ee83a 	callr	r3
 128:	0005313a 	rdctl	r2,ipending

    } while (1);

    active = alt_irq_pending ();
    
  } while (active);
 12c:	10000a26 	beq	r2,zero,158 <alt_irq_handler+0x6c>
 130:	100d883a 	mov	r6,r2
 134:	003ff306 	br	104 <alt_irq_handler+0x18>
 138:	00c00044 	movi	r3,1
 13c:	000b883a 	mov	r5,zero
 140:	1809883a 	mov	r4,r3
#else
        alt_irq[i].handler(alt_irq[i].context, i); 
#endif
        break;
      }
      mask <<= 1;
 144:	18c7883a 	add	r3,r3,r3
      i++;
 148:	290b883a 	add	r5,r5,r4
     * called to clear the interrupt condition.
     */

    do
    {
      if (active & mask)
 14c:	30c4703a 	and	r2,r6,r3
 150:	103ff01e 	bne	r2,zero,114 <alt_irq_handler+0x28>
 154:	003ffb06 	br	144 <alt_irq_handler+0x58>
  /*
   * Notify the operating system that interrupt processing is complete.
   */ 

  ALT_OS_INT_EXIT();
}
 158:	dfc00117 	ldw	ra,4(sp)
 15c:	dc000017 	ldw	r16,0(sp)
 160:	dec00204 	addi	sp,sp,8
 164:	f800283a 	ret

Disassembly of section .text:

00000168 <_start>:
#if (NIOS2_NUM_OF_SHADOW_REG_SETS == 0)    
    /*
     * Now that the caches are initialized, set up the stack pointer.
     * The value provided by the linker is assumed to be correctly aligned.
     */
    movhi sp, %hi(__alt_stack_pointer)
     168:	06c00034 	movhi	sp,0
    ori sp, sp, %lo(__alt_stack_pointer)
     16c:	ded80014 	ori	sp,sp,24576

    /* Set up the global pointer. */
    movhi gp, %hi(_gp)
     170:	06800034 	movhi	gp,0
    ori gp, gp, %lo(_gp)
     174:	d6adcd14 	ori	gp,gp,46900
 */
#ifndef ALT_SIM_OPTIMIZE
    /* Log that the BSS is about to be cleared. */
    ALT_LOG_PUTS(alt_log_msg_bss)

    movhi r2, %hi(__bss_start)
     178:	00800034 	movhi	r2,0
    ori r2, r2, %lo(__bss_start)
     17c:	1093a114 	ori	r2,r2,20100

    movhi r3, %hi(__bss_end)
     180:	00c00034 	movhi	r3,0
    ori r3, r3, %lo(__bss_end)
     184:	18d3f314 	ori	r3,r3,20428

    beq r2, r3, 1f
     188:	10c00326 	beq	r2,r3,198 <_start+0x30>

0:
    stw zero, (r2)
     18c:	10000015 	stw	zero,0(r2)
    addi r2, r2, 4
     190:	10800104 	addi	r2,r2,4
    bltu r2, r3, 0b
     194:	10fffd36 	bltu	r2,r3,18c <_start+0x24>
     * section aren't defined until alt_load() has been called).
     */
    mov   et, zero
#endif

    call alt_load
     198:	00009a80 	call	9a8 <alt_load>

    /* Log that alt_main is about to be called. */
    ALT_LOG_PUTS(alt_log_msg_alt_main)

    /* Call the C entry point. It should never return. */
    call alt_main
     19c:	0000a6c0 	call	a6c <alt_main>

000001a0 <alt_after_alt_main>:

    /* Wait in infinite loop in case alt_main does return. */
alt_after_alt_main:
    br alt_after_alt_main
     1a0:	003fff06 	br	1a0 <alt_after_alt_main>

000001a4 <hex_off>:
	IOWR_ALTERA_AVALON_PIO_DATA(SEVENSEG30_BASE, 0xFFFFFFFF);
	IOWR_ALTERA_AVALON_PIO_DATA(SEVENSEG74_BASE, 0xFFFFFFFF);
}

void hex_off() {
	IOWR_ALTERA_AVALON_PIO_DATA(SEVENSEG30_BASE, 0x00000000);
     1a4:	00ac0014 	movui	r2,45056
     1a8:	10000035 	stwio	zero,0(r2)
	IOWR_ALTERA_AVALON_PIO_DATA(SEVENSEG74_BASE, 0x00000000);
     1ac:	00b00014 	movui	r2,49152
     1b0:	10000035 	stwio	zero,0(r2)
     1b4:	f800283a 	ret

000001b8 <hex_on>:
#include "hex.h"

void hex_on() {
	IOWR_ALTERA_AVALON_PIO_DATA(SEVENSEG30_BASE, 0xFFFFFFFF);
     1b8:	00bfffc4 	movi	r2,-1
     1bc:	00ec0014 	movui	r3,45056
     1c0:	18800035 	stwio	r2,0(r3)
	IOWR_ALTERA_AVALON_PIO_DATA(SEVENSEG74_BASE, 0xFFFFFFFF);
     1c4:	00f00014 	movui	r3,49152
     1c8:	18800035 	stwio	r2,0(r3)
}
     1cc:	f800283a 	ret

000001d0 <write_current_time_to_bot_row>:
	seconds = 0;
	tenths = 0;
}

// For the Key 2 press
void write_current_time_to_bot_row() {
     1d0:	deffff04 	addi	sp,sp,-4
     1d4:	dfc00015 	stw	ra,0(sp)
	alt_up_character_lcd_set_cursor_pos(char_lcd_dev, 0, 1);
     1d8:	d125d917 	ldw	r4,-26780(gp)
     1dc:	000b883a 	mov	r5,zero
     1e0:	01800044 	movi	r6,1
     1e4:	00014dc0 	call	14dc <alt_up_character_lcd_set_cursor_pos>
	alt_up_character_lcd_string(char_lcd_dev, top_row);
     1e8:	d125d917 	ldw	r4,-26780(gp)
     1ec:	01400034 	movhi	r5,0
     1f0:	29480f04 	addi	r5,r5,8252
     1f4:	00012600 	call	1260 <alt_up_character_lcd_string>
}
     1f8:	dfc00017 	ldw	ra,0(sp)
     1fc:	dec00104 	addi	sp,sp,4
     200:	f800283a 	ret

00000204 <handle_button_interrupts>:
	volatile int* edge_capture_ptr = (volatile int*) context;
	/*
	* Read the edge capture register on the button PIO.
	* Store value.
	*/
	*edge_capture_ptr = IORD_ALTERA_AVALON_PIO_EDGE_CAP(KEY_BASE);
     204:	00f40314 	movui	r3,53260
     208:	18800037 	ldwio	r2,0(r3)
     20c:	20800015 	stw	r2,0(r4)
	/* Write to the edge capture register to reset it. */
	IOWR_ALTERA_AVALON_PIO_EDGE_CAP(KEY_BASE, 0);
     210:	18000035 	stwio	zero,0(r3)
	/* reset interrupt capability for the Button PIO. */
	IOWR_ALTERA_AVALON_PIO_IRQ_MASK(KEY_BASE, 0xf);
     214:	00c003c4 	movi	r3,15
     218:	00b40214 	movui	r2,53256
     21c:	10c00035 	stwio	r3,0(r2)
}
     220:	f800283a 	ret

00000224 <reset_display>:
char bot_row[17];

/* Functions used for updating displays */

// For the Key 1 press
void reset_display() {
     224:	defffd04 	addi	sp,sp,-12
     228:	dfc00215 	stw	ra,8(sp)
     22c:	dc400115 	stw	r17,4(sp)
     230:	dc000015 	stw	r16,0(sp)
	// Clear the top row
	strcpy(top_row, "    12:00:00    ");
     234:	04000034 	movhi	r16,0
     238:	84080f04 	addi	r16,r16,8252
     23c:	04400444 	movi	r17,17
     240:	8009883a 	mov	r4,r16
     244:	01400034 	movhi	r5,0
     248:	2947e804 	addi	r5,r5,8096
     24c:	880d883a 	mov	r6,r17
     250:	000084c0 	call	84c <memcpy>
	alt_up_character_lcd_set_cursor_pos(char_lcd_dev, 0, 0);
     254:	d125d917 	ldw	r4,-26780(gp)
     258:	000b883a 	mov	r5,zero
     25c:	000d883a 	mov	r6,zero
     260:	00014dc0 	call	14dc <alt_up_character_lcd_set_cursor_pos>
	alt_up_character_lcd_string(char_lcd_dev, top_row);
     264:	d125d917 	ldw	r4,-26780(gp)
     268:	800b883a 	mov	r5,r16
     26c:	00012600 	call	1260 <alt_up_character_lcd_string>
	
	// Clear the bottom row
	strcpy(bot_row, "                ");
     270:	04000034 	movhi	r16,0
     274:	8413ae04 	addi	r16,r16,20152
     278:	8009883a 	mov	r4,r16
     27c:	01400034 	movhi	r5,0
     280:	2947ed04 	addi	r5,r5,8116
     284:	880d883a 	mov	r6,r17
     288:	000084c0 	call	84c <memcpy>
	alt_up_character_lcd_set_cursor_pos(char_lcd_dev, 0, 1);
     28c:	d125d917 	ldw	r4,-26780(gp)
     290:	000b883a 	mov	r5,zero
     294:	01800044 	movi	r6,1
     298:	00014dc0 	call	14dc <alt_up_character_lcd_set_cursor_pos>
	alt_up_character_lcd_string(char_lcd_dev, bot_row);
     29c:	d125d917 	ldw	r4,-26780(gp)
     2a0:	800b883a 	mov	r5,r16
     2a4:	00012600 	call	1260 <alt_up_character_lcd_string>
	
	// Reset our counters
	minutes = 0;
     2a8:	d025d415 	stw	zero,-26800(gp)
	seconds = 0;
     2ac:	d025d515 	stw	zero,-26796(gp)
	tenths = 0;
     2b0:	d025d615 	stw	zero,-26792(gp)
}
     2b4:	dfc00217 	ldw	ra,8(sp)
     2b8:	dc400117 	ldw	r17,4(sp)
     2bc:	dc000017 	ldw	r16,0(sp)
     2c0:	dec00304 	addi	sp,sp,12
     2c4:	f800283a 	ret

000002c8 <handle_key_press>:
						edge_capture_ptr,
						handle_button_interrupts );
}

/* Our function that handles the key presses */
void handle_key_press() {
     2c8:	deffff04 	addi	sp,sp,-4
     2cc:	dfc00015 	stw	ra,0(sp)
	// Key 1
	if (edge_capture == 2) {
     2d0:	d0e5d817 	ldw	r3,-26784(gp)
     2d4:	00800084 	movi	r2,2
     2d8:	1880021e 	bne	r3,r2,2e4 <handle_key_press+0x1c>
		reset_display();
     2dc:	00002240 	call	224 <reset_display>
     2e0:	00000c06 	br	314 <handle_key_press+0x4c>
	}
	// Key 2
	else if (edge_capture == 4) {
     2e4:	d0e5d817 	ldw	r3,-26784(gp)
     2e8:	00800104 	movi	r2,4
     2ec:	1880021e 	bne	r3,r2,2f8 <handle_key_press+0x30>
		write_current_time_to_bot_row();
     2f0:	00001d00 	call	1d0 <write_current_time_to_bot_row>
     2f4:	00000706 	br	314 <handle_key_press+0x4c>
	}
	// Key 3
	else if (edge_capture == 8) {
     2f8:	d0e5d817 	ldw	r3,-26784(gp)
     2fc:	00800204 	movi	r2,8
     300:	1880041e 	bne	r3,r2,314 <handle_key_press+0x4c>
		half_second = 1;
     304:	00800044 	movi	r2,1
     308:	d0a5d715 	stw	r2,-26788(gp)
		init_timer_1(&half_second);
     30c:	d125d704 	addi	r4,gp,-26788
     310:	00005100 	call	510 <init_timer_1>
	}
	
	// Reset our edge capture back to 0
	edge_capture = 0;
     314:	d025d815 	stw	zero,-26784(gp)
}
     318:	dfc00017 	ldw	ra,0(sp)
     31c:	dec00104 	addi	sp,sp,4
     320:	f800283a 	ret

00000324 <main>:

int main(void)
{
     324:	defffb04 	addi	sp,sp,-20
     328:	dfc00415 	stw	ra,16(sp)
     32c:	dcc00315 	stw	r19,12(sp)
     330:	dc800215 	stw	r18,8(sp)
     334:	dc400115 	stw	r17,4(sp)
     338:	dc000015 	stw	r16,0(sp)
	// open the Character LCD port
	char_lcd_dev = alt_up_character_lcd_open_dev ("/dev/LCD");
     33c:	01000034 	movhi	r4,0
     340:	2107f204 	addi	r4,r4,8136
     344:	00015300 	call	1530 <alt_up_character_lcd_open_dev>
     348:	1009883a 	mov	r4,r2
     34c:	d0a5d915 	stw	r2,-26780(gp)
	/* Initialize the character display */
	alt_up_character_lcd_init(char_lcd_dev);
     350:	00012f80 	call	12f8 <alt_up_character_lcd_init>
	
	
	// Initialize the Timers
	init_timer_0(&tenths);
     354:	d125d604 	addi	r4,gp,-26792
     358:	00005640 	call	564 <init_timer_0>
{
	/* Recast the edge_capture pointer to match the
	alt_irq_register() function prototype. */
	void* edge_capture_ptr = (void*) &edge_capture;
	/* Enable all 4 button interrupts. */
	IOWR_ALTERA_AVALON_PIO_IRQ_MASK(KEY_BASE, 0xf);
     35c:	00c003c4 	movi	r3,15
     360:	00b40214 	movui	r2,53256
     364:	10c00035 	stwio	r3,0(r2)
	/* Reset the edge capture register. */
	IOWR_ALTERA_AVALON_PIO_EDGE_CAP(KEY_BASE, 0x0);
     368:	00b40314 	movui	r2,53260
     36c:	10000035 	stwio	zero,0(r2)
	/* Register the ISR. */
	alt_irq_register( 	KEY_IRQ,
     370:	010000c4 	movi	r4,3
     374:	d165d804 	addi	r5,gp,-26784
     378:	01800034 	movhi	r6,0
     37c:	31808104 	addi	r6,r6,516
     380:	00008ec0 	call	8ec <alt_irq_register>
     384:	0021883a 	mov	r16,zero
     388:	04400034 	movhi	r17,0
     38c:	8c480f04 	addi	r17,r17,8252
     390:	04800284 	movi	r18,10
     394:	04c00c04 	movi	r19,48
	while(1)  {
		// check the state of the context integer updated by various ISR functions	
		// Act accordingly, which means
		
		// Handle if a key was pressed
		if (edge_capture) {
     398:	d0a5d817 	ldw	r2,-26784(gp)
     39c:	10000126 	beq	r2,zero,3a4 <main+0x80>
			handle_key_press();
     3a0:	00002c80 	call	2c8 <handle_key_press>
		}
		
		// Flash on and off our displays
		if (half_second) {
     3a4:	d0a5d717 	ldw	r2,-26788(gp)
     3a8:	10000d26 	beq	r2,zero,3e0 <main+0xbc>
			// Odd numbers
			if (half_second % 2) {
     3ac:	d0a5d717 	ldw	r2,-26788(gp)
     3b0:	1080004c 	andi	r2,r2,1
     3b4:	1005003a 	cmpeq	r2,r2,zero
     3b8:	1000021e 	bne	r2,zero,3c4 <main+0xa0>
				// Turn hex on
				hex_on();
     3bc:	00001b80 	call	1b8 <hex_on>
     3c0:	00000106 	br	3c8 <main+0xa4>
			}
			else {
				// Turn hex off
				hex_off();
     3c4:	00001a40 	call	1a4 <hex_off>
			}
			
			if (half_second == 7) {
     3c8:	d0e5d717 	ldw	r3,-26788(gp)
     3cc:	008001c4 	movi	r2,7
     3d0:	1880031e 	bne	r3,r2,3e0 <main+0xbc>
				half_second = 0;
     3d4:	d025d715 	stw	zero,-26788(gp)
				// Turn hex off
				hex_off();
     3d8:	00001a40 	call	1a4 <hex_off>
				// Turn off timer.
				stop_timer_1();
     3dc:	00004c80 	call	4c8 <stop_timer_1>
			}
		}
		
		// Update the clock
		if (tenths != old_tenths) {
     3e0:	d0a5d617 	ldw	r2,-26792(gp)
     3e4:	80bfec26 	beq	r16,r2,398 <main+0x74>
			// Increment our seconds
			if (tenths >= 10) {
     3e8:	d0e5d617 	ldw	r3,-26792(gp)
     3ec:	00800244 	movi	r2,9
     3f0:	10c0290e 	bge	r2,r3,498 <main+0x174>
				seconds++;
     3f4:	d0a5d517 	ldw	r2,-26796(gp)
     3f8:	00c00044 	movi	r3,1
     3fc:	10c5883a 	add	r2,r2,r3
     400:	d0a5d515 	stw	r2,-26796(gp)
				if (seconds == 60) {
     404:	d165d517 	ldw	r5,-26796(gp)
     408:	00800f04 	movi	r2,60
     40c:	2880131e 	bne	r5,r2,45c <main+0x138>
					minutes = (minutes + 1) % 60;
     410:	d125d417 	ldw	r4,-26800(gp)
     414:	20c9883a 	add	r4,r4,r3
     418:	00007dc0 	call	7dc <__modsi3>
     41c:	d0a5d415 	stw	r2,-26800(gp)
					seconds = 0;
     420:	d025d515 	stw	zero,-26796(gp)
					top_row[0] = '0' + (minutes - (minutes % 10)) / 10;
     424:	d425d417 	ldw	r16,-26800(gp)
     428:	d125d417 	ldw	r4,-26800(gp)
     42c:	900b883a 	mov	r5,r18
     430:	00007dc0 	call	7dc <__modsi3>
     434:	8089c83a 	sub	r4,r16,r2
     438:	900b883a 	mov	r5,r18
     43c:	000077c0 	call	77c <__divsi3>
     440:	14c5883a 	add	r2,r2,r19
     444:	88800005 	stb	r2,0(r17)
					top_row[1] = '0' + minutes % 10;
     448:	d125d417 	ldw	r4,-26800(gp)
     44c:	900b883a 	mov	r5,r18
     450:	00007dc0 	call	7dc <__modsi3>
     454:	14c5883a 	add	r2,r2,r19
     458:	88800045 	stb	r2,1(r17)
				}
				top_row[3] = '0' + (seconds - (seconds % 10)) / 10;
     45c:	d425d517 	ldw	r16,-26796(gp)
     460:	d125d517 	ldw	r4,-26796(gp)
     464:	900b883a 	mov	r5,r18
     468:	00007dc0 	call	7dc <__modsi3>
     46c:	8089c83a 	sub	r4,r16,r2
     470:	900b883a 	mov	r5,r18
     474:	000077c0 	call	77c <__divsi3>
     478:	14c5883a 	add	r2,r2,r19
     47c:	888000c5 	stb	r2,3(r17)
				top_row[4] = '0' + seconds % 10;
     480:	d125d517 	ldw	r4,-26796(gp)
     484:	900b883a 	mov	r5,r18
     488:	00007dc0 	call	7dc <__modsi3>
     48c:	14c5883a 	add	r2,r2,r19
     490:	88800105 	stb	r2,4(r17)
				tenths = 0;
     494:	d025d615 	stw	zero,-26792(gp)
			}
			old_tenths = tenths;
     498:	d425d617 	ldw	r16,-26792(gp)
			top_row[6] = '0' + tenths;
     49c:	d0a5d617 	ldw	r2,-26792(gp)
     4a0:	10800c04 	addi	r2,r2,48
     4a4:	88800185 	stb	r2,6(r17)
			alt_up_character_lcd_set_cursor_pos(char_lcd_dev, 0, 0);
     4a8:	d125d917 	ldw	r4,-26780(gp)
     4ac:	000b883a 	mov	r5,zero
     4b0:	000d883a 	mov	r6,zero
     4b4:	00014dc0 	call	14dc <alt_up_character_lcd_set_cursor_pos>
			alt_up_character_lcd_string(char_lcd_dev, top_row);
     4b8:	d125d917 	ldw	r4,-26780(gp)
     4bc:	880b883a 	mov	r5,r17
     4c0:	00012600 	call	1260 <alt_up_character_lcd_string>
     4c4:	003fb406 	br	398 <main+0x74>

000004c8 <stop_timer_1>:
	// Register the ISR. 
	alt_irq_register(TIMER_1_IRQ, half_second_ptr, timer1_isr);
}

void stop_timer_1() {
	IOWR_ALTERA_AVALON_TIMER_CONTROL(TIMER_1_BASE, 0x0);
     4c8:	00a40114 	movui	r2,36868
     4cc:	10000035 	stwio	zero,0(r2)
     4d0:	f800283a 	ret

000004d4 <timer1_isr>:
	IOWR_ALTERA_AVALON_TIMER_CONTROL(TIMER_0_BASE, 0x0);
}

void timer1_isr(void * context, alt_32 id) {
	volatile int* contextTimerPtr = (volatile int*) context;
	*contextTimerPtr = *contextTimerPtr + 1;
     4d4:	20800017 	ldw	r2,0(r4)
     4d8:	10800044 	addi	r2,r2,1
     4dc:	20800015 	stw	r2,0(r4)
	IOWR_ALTERA_AVALON_TIMER_STATUS(TIMER_1_BASE, 0x0);
     4e0:	00a40014 	movui	r2,36864
     4e4:	10000035 	stwio	zero,0(r2)
}
     4e8:	f800283a 	ret

000004ec <stop_timer_0>:
	// Register the ISR. 
	alt_irq_register(TIMER_0_IRQ, tenths_ptr, timer0_isr);
}

void stop_timer_0() {
	IOWR_ALTERA_AVALON_TIMER_CONTROL(TIMER_0_BASE, 0x0);
     4ec:	00a00114 	movui	r2,32772
     4f0:	10000035 	stwio	zero,0(r2)
}
     4f4:	f800283a 	ret

000004f8 <timer0_isr>:
#include "timers.h"

/*		Timer setups 		*/
void timer0_isr(void * context, alt_32 id) {
	volatile int* contextTimerPtr = (volatile int*) context;
	*contextTimerPtr = *contextTimerPtr + 1;
     4f8:	20800017 	ldw	r2,0(r4)
     4fc:	10800044 	addi	r2,r2,1
     500:	20800015 	stw	r2,0(r4)
	IOWR_ALTERA_AVALON_TIMER_STATUS(TIMER_0_BASE, 0x0);
     504:	00a00014 	movui	r2,32768
     508:	10000035 	stwio	zero,0(r2)
}
     50c:	f800283a 	ret

00000510 <init_timer_1>:
	volatile int* contextTimerPtr = (volatile int*) context;
	*contextTimerPtr = *contextTimerPtr + 1;
	IOWR_ALTERA_AVALON_TIMER_STATUS(TIMER_1_BASE, 0x0);
}

void init_timer_1(volatile int *half_second_int_ptr) {
     510:	deffff04 	addi	sp,sp,-4
     514:	dfc00015 	stw	ra,0(sp)
     518:	200b883a 	mov	r5,r4
	// Timer base is TIMER_1_BASE
	// Timer clock is 50,000,000 so to increment a counter every half second, move it every 50,000,000/2 ticks.
	// high 0x017D
	// low 0x7840
	IOWR_ALTERA_AVALON_TIMER_STATUS(TIMER_1_BASE, 0);
     51c:	00a40014 	movui	r2,36864
     520:	10000035 	stwio	zero,0(r2)
	// Used to use ALTERA_AVALON_TIMER_CONTROL_START_MSK, not sure which I need	
	IOWR_ALTERA_AVALON_TIMER_PERIODH(TIMER_1_BASE, 0x017D);
     524:	00c05f44 	movi	r3,381
     528:	00a40314 	movui	r2,36876
     52c:	10c00035 	stwio	r3,0(r2)
	IOWR_ALTERA_AVALON_TIMER_PERIODL(TIMER_1_BASE, 0x7840);
     530:	00de1004 	movi	r3,30784
     534:	00a40214 	movui	r2,36872
     538:	10c00035 	stwio	r3,0(r2)
	IOWR_ALTERA_AVALON_TIMER_CONTROL(TIMER_1_BASE, 0x7);
     53c:	00c001c4 	movi	r3,7
     540:	00a40114 	movui	r2,36868
     544:	10c00035 	stwio	r3,0(r2)
	
	void* half_second_ptr = (void *) half_second_int_ptr;
	// Register the ISR. 
	alt_irq_register(TIMER_1_IRQ, half_second_ptr, timer1_isr);
     548:	01000044 	movi	r4,1
     54c:	01800034 	movhi	r6,0
     550:	31813504 	addi	r6,r6,1236
     554:	00008ec0 	call	8ec <alt_irq_register>
}
     558:	dfc00017 	ldw	ra,0(sp)
     55c:	dec00104 	addi	sp,sp,4
     560:	f800283a 	ret

00000564 <init_timer_0>:
	volatile int* contextTimerPtr = (volatile int*) context;
	*contextTimerPtr = *contextTimerPtr + 1;
	IOWR_ALTERA_AVALON_TIMER_STATUS(TIMER_0_BASE, 0x0);
}

void init_timer_0(volatile int *tenths_int_ptr) {
     564:	deffff04 	addi	sp,sp,-4
     568:	dfc00015 	stw	ra,0(sp)
     56c:	200b883a 	mov	r5,r4
	// Timer base is TIMER_0_BASE
	// Timer clock is 50,000,000 so to increment a counter, move it every 5,000,000 ticks.
	// high 0x004C
	// low 0x4B40
	IOWR_ALTERA_AVALON_TIMER_STATUS(TIMER_0_BASE, 0);
     570:	00a00014 	movui	r2,32768
     574:	10000035 	stwio	zero,0(r2)
	// Used to use ALTERA_AVALON_TIMER_CONTROL_START_MSK, not sure which I need	
	IOWR_ALTERA_AVALON_TIMER_PERIODH(TIMER_0_BASE, 0x004C);
     578:	00c01304 	movi	r3,76
     57c:	00a00314 	movui	r2,32780
     580:	10c00035 	stwio	r3,0(r2)
	IOWR_ALTERA_AVALON_TIMER_PERIODL(TIMER_0_BASE, 0x4B40);
     584:	00d2d004 	movi	r3,19264
     588:	00a00214 	movui	r2,32776
     58c:	10c00035 	stwio	r3,0(r2)
	IOWR_ALTERA_AVALON_TIMER_CONTROL(TIMER_0_BASE, 0x7);
     590:	00c001c4 	movi	r3,7
     594:	00a00114 	movui	r2,32772
     598:	10c00035 	stwio	r3,0(r2)
	
	void* tenths_ptr = (void *) tenths_int_ptr;
	// Register the ISR. 
	alt_irq_register(TIMER_0_IRQ, tenths_ptr, timer0_isr);
     59c:	0009883a 	mov	r4,zero
     5a0:	01800034 	movhi	r6,0
     5a4:	31813e04 	addi	r6,r6,1272
     5a8:	00008ec0 	call	8ec <alt_irq_register>
}
     5ac:	dfc00017 	ldw	ra,0(sp)
     5b0:	dec00104 	addi	sp,sp,4
     5b4:	f800283a 	ret

000005b8 <update_time>:


char * update_time(int *old_tenths_ptr, volatile int *tenths_ptr, int *seconds_ptr, int *minutes_ptr, int *hours_ptr, int tenths_displayed) {
     5b8:	defff404 	addi	sp,sp,-48
     5bc:	dfc00b15 	stw	ra,44(sp)
     5c0:	dd400a15 	stw	r21,40(sp)
     5c4:	dd000915 	stw	r20,36(sp)
     5c8:	dcc00815 	stw	r19,32(sp)
     5cc:	dc800715 	stw	r18,28(sp)
     5d0:	dc400615 	stw	r17,24(sp)
     5d4:	dc000515 	stw	r16,20(sp)
     5d8:	202b883a 	mov	r21,r4
     5dc:	2829883a 	mov	r20,r5
     5e0:	3027883a 	mov	r19,r6
     5e4:	3821883a 	mov	r16,r7
	int min_2 = 8;
	int sec_1 = 10;
	int sec_2 = 11;
	
	
	char top_row[17] = "    00:00:00    ";
     5e8:	00c00034 	movhi	r3,0
     5ec:	18c7f504 	addi	r3,r3,8148
     5f0:	18800017 	ldw	r2,0(r3)
     5f4:	d8800015 	stw	r2,0(sp)
     5f8:	18800117 	ldw	r2,4(r3)
     5fc:	d8800115 	stw	r2,4(sp)
     600:	18800217 	ldw	r2,8(r3)
     604:	d8800215 	stw	r2,8(sp)
     608:	18800317 	ldw	r2,12(r3)
     60c:	d8800315 	stw	r2,12(sp)
     610:	18800403 	ldbu	r2,16(r3)
     614:	d8800405 	stb	r2,16(sp)
	// Increment our seconds
	if ( (*tenths_ptr) >= 10) {
     618:	28c00017 	ldw	r3,0(r5)
     61c:	00800244 	movi	r2,9
     620:	10c0280e 	bge	r2,r3,6c4 <update_time+0x10c>
		(*seconds_ptr) = (*seconds_ptr) + 1;
     624:	30800017 	ldw	r2,0(r6)
     628:	00c00044 	movi	r3,1
     62c:	10cb883a 	add	r5,r2,r3
     630:	31400015 	stw	r5,0(r6)
		if ((*seconds_ptr) == 60) {
     634:	00800f04 	movi	r2,60
     638:	2880131e 	bne	r5,r2,688 <update_time+0xd0>
			(*minutes_ptr) = ((*minutes_ptr) + 1) % 60;
     63c:	39000017 	ldw	r4,0(r7)
     640:	20c9883a 	add	r4,r4,r3
     644:	00007dc0 	call	7dc <__modsi3>
     648:	80800015 	stw	r2,0(r16)
			(*seconds_ptr) = 0;
     64c:	98000015 	stw	zero,0(r19)
			// Write the new minutes out to the display 
			top_row[min_1] = '0' + ((*minutes_ptr) - ((*minutes_ptr) % 10)) / 10;
     650:	84400017 	ldw	r17,0(r16)
     654:	04800284 	movi	r18,10
     658:	8809883a 	mov	r4,r17
     65c:	900b883a 	mov	r5,r18
     660:	00007dc0 	call	7dc <__modsi3>
     664:	1021883a 	mov	r16,r2
     668:	8889c83a 	sub	r4,r17,r2
     66c:	900b883a 	mov	r5,r18
     670:	000077c0 	call	77c <__divsi3>
     674:	00c00c04 	movi	r3,48
     678:	10c5883a 	add	r2,r2,r3
     67c:	d88001c5 	stb	r2,7(sp)
			top_row[min_2] = '0' + (*minutes_ptr) % 10;
     680:	80e1883a 	add	r16,r16,r3
     684:	dc000205 	stb	r16,8(sp)
		}
		// Write out our new seconds to the display.
		top_row[sec_1] = '0' + ((*seconds_ptr) - ((*seconds_ptr) % 10)) / 10;
     688:	9c400017 	ldw	r17,0(r19)
     68c:	04800284 	movi	r18,10
     690:	8809883a 	mov	r4,r17
     694:	900b883a 	mov	r5,r18
     698:	00007dc0 	call	7dc <__modsi3>
     69c:	1021883a 	mov	r16,r2
     6a0:	8889c83a 	sub	r4,r17,r2
     6a4:	900b883a 	mov	r5,r18
     6a8:	000077c0 	call	77c <__divsi3>
     6ac:	00c00c04 	movi	r3,48
     6b0:	10c5883a 	add	r2,r2,r3
     6b4:	d8800285 	stb	r2,10(sp)
		top_row[sec_2] = '0' + (*seconds_ptr) % 10;
     6b8:	80e1883a 	add	r16,r16,r3
     6bc:	dc0002c5 	stb	r16,11(sp)
		(*tenths_ptr) = 0;
     6c0:	a0000015 	stw	zero,0(r20)
	}
	(*old_tenths_ptr) = (*tenths_ptr);
     6c4:	a0800017 	ldw	r2,0(r20)
     6c8:	a8800015 	stw	r2,0(r21)
	return top_row;
}
     6cc:	d805883a 	mov	r2,sp
     6d0:	dfc00b17 	ldw	ra,44(sp)
     6d4:	dd400a17 	ldw	r21,40(sp)
     6d8:	dd000917 	ldw	r20,36(sp)
     6dc:	dcc00817 	ldw	r19,32(sp)
     6e0:	dc800717 	ldw	r18,28(sp)
     6e4:	dc400617 	ldw	r17,24(sp)
     6e8:	dc000517 	ldw	r16,20(sp)
     6ec:	dec00c04 	addi	sp,sp,48
     6f0:	f800283a 	ret

000006f4 <update_hour>:

void update_hour() {

}
     6f4:	f800283a 	ret

000006f8 <update_min>:

void update_min() {

}
     6f8:	f800283a 	ret

000006fc <update_sec>:

void update_sec() {

     6fc:	f800283a 	ret

00000700 <udivmodsi4>:
     700:	29001b2e 	bgeu	r5,r4,770 <udivmodsi4+0x70>
     704:	28001a16 	blt	r5,zero,770 <udivmodsi4+0x70>
     708:	00800044 	movi	r2,1
     70c:	0007883a 	mov	r3,zero
     710:	01c007c4 	movi	r7,31
     714:	00000306 	br	724 <udivmodsi4+0x24>
     718:	19c01326 	beq	r3,r7,768 <udivmodsi4+0x68>
     71c:	18c00044 	addi	r3,r3,1
     720:	28000416 	blt	r5,zero,734 <udivmodsi4+0x34>
     724:	294b883a 	add	r5,r5,r5
     728:	1085883a 	add	r2,r2,r2
     72c:	293ffa36 	bltu	r5,r4,718 <udivmodsi4+0x18>
     730:	10000d26 	beq	r2,zero,768 <udivmodsi4+0x68>
     734:	0007883a 	mov	r3,zero
     738:	21400236 	bltu	r4,r5,744 <udivmodsi4+0x44>
     73c:	2149c83a 	sub	r4,r4,r5
     740:	1886b03a 	or	r3,r3,r2
     744:	1004d07a 	srli	r2,r2,1
     748:	280ad07a 	srli	r5,r5,1
     74c:	103ffa1e 	bne	r2,zero,738 <udivmodsi4+0x38>
     750:	30000226 	beq	r6,zero,75c <udivmodsi4+0x5c>
     754:	2005883a 	mov	r2,r4
     758:	f800283a 	ret
     75c:	1809883a 	mov	r4,r3
     760:	2005883a 	mov	r2,r4
     764:	f800283a 	ret
     768:	0007883a 	mov	r3,zero
     76c:	003ff806 	br	750 <udivmodsi4+0x50>
     770:	00800044 	movi	r2,1
     774:	0007883a 	mov	r3,zero
     778:	003fef06 	br	738 <udivmodsi4+0x38>

0000077c <__divsi3>:
     77c:	defffe04 	addi	sp,sp,-8
     780:	dc000015 	stw	r16,0(sp)
     784:	dfc00115 	stw	ra,4(sp)
     788:	0021883a 	mov	r16,zero
     78c:	20000c16 	blt	r4,zero,7c0 <__divsi3+0x44>
     790:	000d883a 	mov	r6,zero
     794:	28000e16 	blt	r5,zero,7d0 <__divsi3+0x54>
     798:	00007000 	call	700 <udivmodsi4>
     79c:	1007883a 	mov	r3,r2
     7a0:	8005003a 	cmpeq	r2,r16,zero
     7a4:	1000011e 	bne	r2,zero,7ac <__divsi3+0x30>
     7a8:	00c7c83a 	sub	r3,zero,r3
     7ac:	1805883a 	mov	r2,r3
     7b0:	dfc00117 	ldw	ra,4(sp)
     7b4:	dc000017 	ldw	r16,0(sp)
     7b8:	dec00204 	addi	sp,sp,8
     7bc:	f800283a 	ret
     7c0:	0109c83a 	sub	r4,zero,r4
     7c4:	04000044 	movi	r16,1
     7c8:	000d883a 	mov	r6,zero
     7cc:	283ff20e 	bge	r5,zero,798 <__divsi3+0x1c>
     7d0:	014bc83a 	sub	r5,zero,r5
     7d4:	8021003a 	cmpeq	r16,r16,zero
     7d8:	003fef06 	br	798 <__divsi3+0x1c>

000007dc <__modsi3>:
     7dc:	deffff04 	addi	sp,sp,-4
     7e0:	dfc00015 	stw	ra,0(sp)
     7e4:	01800044 	movi	r6,1
     7e8:	2807883a 	mov	r3,r5
     7ec:	20000416 	blt	r4,zero,800 <__modsi3+0x24>
     7f0:	28000c16 	blt	r5,zero,824 <__modsi3+0x48>
     7f4:	dfc00017 	ldw	ra,0(sp)
     7f8:	dec00104 	addi	sp,sp,4
     7fc:	00007001 	jmpi	700 <udivmodsi4>
     800:	0109c83a 	sub	r4,zero,r4
     804:	28000b16 	blt	r5,zero,834 <__modsi3+0x58>
     808:	180b883a 	mov	r5,r3
     80c:	01800044 	movi	r6,1
     810:	00007000 	call	700 <udivmodsi4>
     814:	0085c83a 	sub	r2,zero,r2
     818:	dfc00017 	ldw	ra,0(sp)
     81c:	dec00104 	addi	sp,sp,4
     820:	f800283a 	ret
     824:	014bc83a 	sub	r5,zero,r5
     828:	dfc00017 	ldw	ra,0(sp)
     82c:	dec00104 	addi	sp,sp,4
     830:	00007001 	jmpi	700 <udivmodsi4>
     834:	0147c83a 	sub	r3,zero,r5
     838:	003ff306 	br	808 <__modsi3+0x2c>

0000083c <__udivsi3>:
     83c:	000d883a 	mov	r6,zero
     840:	00007001 	jmpi	700 <udivmodsi4>

00000844 <__umodsi3>:
     844:	01800044 	movi	r6,1
     848:	00007001 	jmpi	700 <udivmodsi4>

0000084c <memcpy>:
     84c:	01c003c4 	movi	r7,15
     850:	2007883a 	mov	r3,r4
     854:	3980032e 	bgeu	r7,r6,864 <memcpy+0x18>
     858:	2904b03a 	or	r2,r5,r4
     85c:	108000cc 	andi	r2,r2,3
     860:	10000926 	beq	r2,zero,888 <memcpy+0x3c>
     864:	30000626 	beq	r6,zero,880 <memcpy+0x34>
     868:	30cd883a 	add	r6,r6,r3
     86c:	28800003 	ldbu	r2,0(r5)
     870:	29400044 	addi	r5,r5,1
     874:	18800005 	stb	r2,0(r3)
     878:	18c00044 	addi	r3,r3,1
     87c:	30fffb1e 	bne	r6,r3,86c <memcpy+0x20>
     880:	2005883a 	mov	r2,r4
     884:	f800283a 	ret
     888:	3811883a 	mov	r8,r7
     88c:	200f883a 	mov	r7,r4
     890:	28c00017 	ldw	r3,0(r5)
     894:	31bffc04 	addi	r6,r6,-16
     898:	38c00015 	stw	r3,0(r7)
     89c:	28800117 	ldw	r2,4(r5)
     8a0:	38800115 	stw	r2,4(r7)
     8a4:	28c00217 	ldw	r3,8(r5)
     8a8:	38c00215 	stw	r3,8(r7)
     8ac:	28800317 	ldw	r2,12(r5)
     8b0:	29400404 	addi	r5,r5,16
     8b4:	38800315 	stw	r2,12(r7)
     8b8:	39c00404 	addi	r7,r7,16
     8bc:	41bff436 	bltu	r8,r6,890 <memcpy+0x44>
     8c0:	008000c4 	movi	r2,3
     8c4:	1180072e 	bgeu	r2,r6,8e4 <memcpy+0x98>
     8c8:	1007883a 	mov	r3,r2
     8cc:	28800017 	ldw	r2,0(r5)
     8d0:	31bfff04 	addi	r6,r6,-4
     8d4:	29400104 	addi	r5,r5,4
     8d8:	38800015 	stw	r2,0(r7)
     8dc:	39c00104 	addi	r7,r7,4
     8e0:	19bffa36 	bltu	r3,r6,8cc <memcpy+0x80>
     8e4:	3807883a 	mov	r3,r7
     8e8:	003fde06 	br	864 <memcpy+0x18>

000008ec <alt_irq_register>:
 */
 
int alt_irq_register (alt_u32 id, 
                      void* context, 
                      alt_isr_func handler)
{
     8ec:	200f883a 	mov	r7,r4
  int rc = -EINVAL;  
  alt_irq_context status;

  if (id < ALT_NIRQ)
     8f0:	008007c4 	movi	r2,31
     8f4:	1100022e 	bgeu	r2,r4,900 <alt_irq_register+0x14>
     8f8:	00bffa84 	movi	r2,-22
     8fc:	f800283a 	ret
static ALT_INLINE alt_irq_context ALT_ALWAYS_INLINE 
       alt_irq_disable_all (void)
{
  alt_irq_context context;

  NIOS2_READ_STATUS (context);
     900:	0011303a 	rdctl	r8,status

  NIOS2_WRITE_STATUS (context & ~NIOS2_STATUS_PIE_MSK);
     904:	013fff84 	movi	r4,-2
     908:	4104703a 	and	r2,r8,r4
     90c:	1001703a 	wrctl	status,r2
     * state.
     */

    status = alt_irq_disable_all ();

    alt_irq[id].handler = handler;
     910:	380490fa 	slli	r2,r7,3
     914:	00c00034 	movhi	r3,0
     918:	18d3b304 	addi	r3,r3,20172
     91c:	10c5883a 	add	r2,r2,r3
     920:	11800015 	stw	r6,0(r2)
    alt_irq[id].context = context;
     924:	11400115 	stw	r5,4(r2)

    rc = (handler) ? alt_irq_enable (id): alt_irq_disable (id);
     928:	30000e26 	beq	r6,zero,964 <alt_irq_register+0x78>
static ALT_INLINE alt_irq_context ALT_ALWAYS_INLINE 
       alt_irq_disable_all (void)
{
  alt_irq_context context;

  NIOS2_READ_STATUS (context);
     92c:	000b303a 	rdctl	r5,status

  NIOS2_WRITE_STATUS (context & ~NIOS2_STATUS_PIE_MSK);
     930:	2904703a 	and	r2,r5,r4
     934:	1001703a 	wrctl	status,r2
  alt_irq_context  status;
  extern volatile alt_u32 alt_irq_active;

  status = alt_irq_disable_all ();

  alt_irq_active |= (1 << id);
     938:	00c00034 	movhi	r3,0
     93c:	18d3a704 	addi	r3,r3,20124
     940:	19000017 	ldw	r4,0(r3)
     944:	00800044 	movi	r2,1
     948:	11c4983a 	sll	r2,r2,r7
     94c:	1104b03a 	or	r2,r2,r4
     950:	18800015 	stw	r2,0(r3)
  NIOS2_WRITE_IENABLE (alt_irq_active);
     954:	18800017 	ldw	r2,0(r3)
     958:	100170fa 	wrctl	ienable,r2
  status &= ~NIOS2_STATUS_PIE_MSK;
  status |= (context & NIOS2_STATUS_PIE_MSK);
  
  NIOS2_WRITE_STATUS (status);
#else
  NIOS2_WRITE_STATUS (context);
     95c:	2801703a 	wrctl	status,r5
     960:	00000e06 	br	99c <alt_irq_register+0xb0>
static ALT_INLINE alt_irq_context ALT_ALWAYS_INLINE 
       alt_irq_disable_all (void)
{
  alt_irq_context context;

  NIOS2_READ_STATUS (context);
     964:	000b303a 	rdctl	r5,status

  NIOS2_WRITE_STATUS (context & ~NIOS2_STATUS_PIE_MSK);
     968:	00bfff84 	movi	r2,-2
     96c:	2884703a 	and	r2,r5,r2
     970:	1001703a 	wrctl	status,r2
  alt_irq_context  status;
  extern volatile alt_u32 alt_irq_active;

  status = alt_irq_disable_all ();

  alt_irq_active &= ~(1 << id);
     974:	00c00034 	movhi	r3,0
     978:	18d3a704 	addi	r3,r3,20124
     97c:	19000017 	ldw	r4,0(r3)
     980:	00bfff84 	movi	r2,-2
     984:	11c4183a 	rol	r2,r2,r7
     988:	1104703a 	and	r2,r2,r4
     98c:	18800015 	stw	r2,0(r3)
  NIOS2_WRITE_IENABLE (alt_irq_active);
     990:	18800017 	ldw	r2,0(r3)
     994:	100170fa 	wrctl	ienable,r2
  status &= ~NIOS2_STATUS_PIE_MSK;
  status |= (context & NIOS2_STATUS_PIE_MSK);
  
  NIOS2_WRITE_STATUS (status);
#else
  NIOS2_WRITE_STATUS (context);
     998:	2801703a 	wrctl	status,r5
     99c:	4001703a 	wrctl	status,r8
     9a0:	0005883a 	mov	r2,zero

    alt_irq_enable_all(status);
  }
  return rc; 
}
     9a4:	f800283a 	ret

000009a8 <alt_load>:
 * there is no bootloader, so this application is responsible for loading to
 * RAM any sections that are required.
 */  

void alt_load (void)
{
     9a8:	deffff04 	addi	sp,sp,-4
     9ac:	dfc00015 	stw	ra,0(sp)
  /* 
   * Copy the .rwdata section. 
   */

  alt_load_section (&__flash_rwdata_start, 
     9b0:	01000034 	movhi	r4,0
     9b4:	210dd804 	addi	r4,r4,14176
     9b8:	00c00034 	movhi	r3,0
     9bc:	18c80f04 	addi	r3,r3,8252

static void ALT_INLINE alt_load_section (alt_u32* from, 
                                         alt_u32* to, 
                                         alt_u32* end)
{
  if (to != from)
     9c0:	20c00926 	beq	r4,r3,9e8 <alt_load+0x40>
     9c4:	01800034 	movhi	r6,0
     9c8:	318dd804 	addi	r6,r6,14176
  {
    while( to != end )
     9cc:	19800626 	beq	r3,r6,9e8 <alt_load+0x40>
     9d0:	01400104 	movi	r5,4
    {
      *to++ = *from++;
     9d4:	20800017 	ldw	r2,0(r4)
     9d8:	18800015 	stw	r2,0(r3)
     9dc:	1947883a 	add	r3,r3,r5
     9e0:	2149883a 	add	r4,r4,r5
                                         alt_u32* to, 
                                         alt_u32* end)
{
  if (to != from)
  {
    while( to != end )
     9e4:	30fffb1e 	bne	r6,r3,9d4 <alt_load+0x2c>

  /*
   * Copy the exception handler.
   */

  alt_load_section (&__flash_exceptions_start, 
     9e8:	01000034 	movhi	r4,0
     9ec:	21000804 	addi	r4,r4,32
     9f0:	00c00034 	movhi	r3,0
     9f4:	18c00804 	addi	r3,r3,32

static void ALT_INLINE alt_load_section (alt_u32* from, 
                                         alt_u32* to, 
                                         alt_u32* end)
{
  if (to != from)
     9f8:	20c00926 	beq	r4,r3,a20 <alt_load+0x78>
     9fc:	01800034 	movhi	r6,0
     a00:	31805a04 	addi	r6,r6,360
  {
    while( to != end )
     a04:	19800626 	beq	r3,r6,a20 <alt_load+0x78>
     a08:	01400104 	movi	r5,4
    {
      *to++ = *from++;
     a0c:	20800017 	ldw	r2,0(r4)
     a10:	18800015 	stw	r2,0(r3)
     a14:	1947883a 	add	r3,r3,r5
     a18:	2149883a 	add	r4,r4,r5
                                         alt_u32* to, 
                                         alt_u32* end)
{
  if (to != from)
  {
    while( to != end )
     a1c:	30fffb1e 	bne	r6,r3,a0c <alt_load+0x64>

  /*
   * Copy the .rodata section.
   */

  alt_load_section (&__flash_rodata_start, 
     a20:	01000034 	movhi	r4,0
     a24:	2107e804 	addi	r4,r4,8096
     a28:	00c00034 	movhi	r3,0
     a2c:	18c7e804 	addi	r3,r3,8096

static void ALT_INLINE alt_load_section (alt_u32* from, 
                                         alt_u32* to, 
                                         alt_u32* end)
{
  if (to != from)
     a30:	20c00926 	beq	r4,r3,a58 <alt_load+0xb0>
     a34:	01800034 	movhi	r6,0
     a38:	31880f04 	addi	r6,r6,8252
  {
    while( to != end )
     a3c:	19800626 	beq	r3,r6,a58 <alt_load+0xb0>
     a40:	01400104 	movi	r5,4
    {
      *to++ = *from++;
     a44:	20800017 	ldw	r2,0(r4)
     a48:	18800015 	stw	r2,0(r3)
     a4c:	1947883a 	add	r3,r3,r5
     a50:	2149883a 	add	r4,r4,r5
                                         alt_u32* to, 
                                         alt_u32* end)
{
  if (to != from)
  {
    while( to != end )
     a54:	30fffb1e 	bne	r6,r3,a44 <alt_load+0x9c>
  
  /*
   * Now ensure that the caches are in synch.
   */
  
  alt_dcache_flush_all();
     a58:	00016c00 	call	16c0 <alt_dcache_flush_all>
  alt_icache_flush_all();
     a5c:	00017ac0 	call	17ac <alt_icache_flush_all>
}
     a60:	dfc00017 	ldw	ra,0(sp)
     a64:	dec00104 	addi	sp,sp,4
     a68:	f800283a 	ret

00000a6c <alt_main>:
 * devices/filesystems/components in the system; and call the entry point for
 * the users application, i.e. main().
 */

void alt_main (void)
{
     a6c:	defffe04 	addi	sp,sp,-8
     a70:	dfc00115 	stw	ra,4(sp)
     a74:	dc000015 	stw	r16,0(sp)
#endif

  /* ALT LOG - please see HAL/sys/alt_log_printf.h for details */
  ALT_LOG_PRINT_BOOT("[alt_main.c] Entering alt_main, calling alt_irq_init.\r\n");
  /* Initialize the interrupt controller. */
  alt_irq_init (NULL);
     a78:	0009883a 	mov	r4,zero
     a7c:	0000abc0 	call	abc <alt_irq_init>
  ALT_LOG_PRINT_BOOT("[alt_main.c] Done OS Init, calling alt_sem_create.\r\n");
  ALT_SEM_CREATE (&alt_fd_list_lock, 1);

  /* Initialize the device drivers/software components. */
  ALT_LOG_PRINT_BOOT("[alt_main.c] Calling alt_sys_init.\r\n");
  alt_sys_init();
     a80:	0000adc0 	call	adc <alt_sys_init>
   * devices be present (not equal to /dev/null) and if direct drivers
   * aren't being used.
   */

    ALT_LOG_PRINT_BOOT("[alt_main.c] Redirecting IO.\r\n");
    alt_io_redirect(ALT_STDOUT, ALT_STDIN, ALT_STDERR);
     a84:	01800034 	movhi	r6,0
     a88:	3187fa04 	addi	r6,r6,8168
     a8c:	3009883a 	mov	r4,r6
     a90:	300b883a 	mov	r5,r6
     a94:	00018300 	call	1830 <alt_io_redirect>
  ALT_LOG_PRINT_BOOT("[alt_main.c] Calling main.\r\n");

#ifdef ALT_NO_EXIT
  main (alt_argc, alt_argv, alt_envp);
#else
  result = main (alt_argc, alt_argv, alt_envp);
     a98:	d125db17 	ldw	r4,-26772(gp)
     a9c:	d165dc17 	ldw	r5,-26768(gp)
     aa0:	d1a5dd17 	ldw	r6,-26764(gp)
     aa4:	00003240 	call	324 <main>
     aa8:	1021883a 	mov	r16,r2
  close(STDOUT_FILENO);
     aac:	01000044 	movi	r4,1
     ab0:	00015e40 	call	15e4 <close>
  exit (result);
     ab4:	8009883a 	mov	r4,r16
     ab8:	0001cb40 	call	1cb4 <exit>

00000abc <alt_irq_init>:
 * The "base" parameter is ignored and only
 * present for backwards-compatibility.
 */

void alt_irq_init ( const void* base )
{
     abc:	deffff04 	addi	sp,sp,-4
     ac0:	dfc00015 	stw	ra,0(sp)
    ALTERA_NIOS2_QSYS_IRQ_INIT ( NIOS2_QSYS_0, nios2_qsys_0);
     ac4:	0001b480 	call	1b48 <altera_nios2_qsys_irq_init>
 * alt_irq_cpu_enable_interrupts() enables the CPU to start taking interrupts.
 */
static ALT_INLINE void ALT_ALWAYS_INLINE 
       alt_irq_cpu_enable_interrupts ()
{
    NIOS2_WRITE_STATUS(NIOS2_STATUS_PIE_MSK
     ac8:	00800044 	movi	r2,1
     acc:	1001703a 	wrctl	status,r2
    alt_irq_cpu_enable_interrupts();
}
     ad0:	dfc00017 	ldw	ra,0(sp)
     ad4:	dec00104 	addi	sp,sp,4
     ad8:	f800283a 	ret

00000adc <alt_sys_init>:
 * Initialize the non-interrupt controller devices.
 * Called after alt_irq_init().
 */

void alt_sys_init( void )
{
     adc:	defffd04 	addi	sp,sp,-12
     ae0:	dfc00215 	stw	ra,8(sp)
     ae4:	dc400115 	stw	r17,4(sp)
     ae8:	dc000015 	stw	r16,0(sp)
    ALTERA_AVALON_TIMER_INIT ( TIMER_0, timer_0);
     aec:	01200014 	movui	r4,32768
     af0:	000b883a 	mov	r5,zero
     af4:	000d883a 	mov	r6,zero
     af8:	01c01904 	movi	r7,100
     afc:	00011c40 	call	11c4 <alt_avalon_timer_sc_init>
    ALTERA_AVALON_TIMER_INIT ( TIMER_1, timer_1);
    ALTERA_AVALON_JTAG_UART_INIT ( JTAGUART, JTAGUART);
     b00:	04000034 	movhi	r16,0
     b04:	84081e04 	addi	r16,r16,8312
     b08:	8009883a 	mov	r4,r16
     b0c:	000b883a 	mov	r5,zero
     b10:	01800084 	movi	r6,2
     b14:	0000cc00 	call	cc0 <altera_avalon_jtag_uart_init>

static ALT_INLINE int alt_dev_reg (alt_dev* dev)
{
  extern alt_llist alt_dev_list;

  return alt_dev_llist_insert ((alt_dev_llist*) dev, &alt_dev_list);
     b18:	04400034 	movhi	r17,0
     b1c:	8c4dd004 	addi	r17,r17,14144
     b20:	813ff604 	addi	r4,r16,-40
     b24:	880b883a 	mov	r5,r17
     b28:	00016cc0 	call	16cc <alt_dev_llist_insert>
    ALTERA_UP_AVALON_CHARACTER_LCD_INIT ( LCD, LCD);
     b2c:	04000034 	movhi	r16,0
     b30:	840c2c04 	addi	r16,r16,12464
     b34:	8009883a 	mov	r4,r16
     b38:	00012f80 	call	12f8 <alt_up_character_lcd_init>
     b3c:	8009883a 	mov	r4,r16
     b40:	880b883a 	mov	r5,r17
     b44:	00016cc0 	call	16cc <alt_dev_llist_insert>
     b48:	01000034 	movhi	r4,0
     b4c:	210c3704 	addi	r4,r4,12508
     b50:	880b883a 	mov	r5,r17
     b54:	00016cc0 	call	16cc <alt_dev_llist_insert>
     b58:	01000034 	movhi	r4,0
     b5c:	210c4204 	addi	r4,r4,12552
     b60:	880b883a 	mov	r5,r17
     b64:	00016cc0 	call	16cc <alt_dev_llist_insert>
     b68:	01000034 	movhi	r4,0
     b6c:	210c4d04 	addi	r4,r4,12596
     b70:	880b883a 	mov	r5,r17
     b74:	00016cc0 	call	16cc <alt_dev_llist_insert>
     b78:	01000034 	movhi	r4,0
     b7c:	210c5804 	addi	r4,r4,12640
     b80:	880b883a 	mov	r5,r17
     b84:	00016cc0 	call	16cc <alt_dev_llist_insert>
    ALTERA_UP_AVALON_PARALLEL_PORT_INIT ( KEY, KEY);
    ALTERA_UP_AVALON_PARALLEL_PORT_INIT ( SEVENSEG30, SevenSeg30);
    ALTERA_UP_AVALON_PARALLEL_PORT_INIT ( SEVENSEG74, SevenSeg74);
    ALTERA_UP_AVALON_PARALLEL_PORT_INIT ( SW, SW);
}
     b88:	dfc00217 	ldw	ra,8(sp)
     b8c:	dc400117 	ldw	r17,4(sp)
     b90:	dc000017 	ldw	r16,0(sp)
     b94:	dec00304 	addi	sp,sp,12
     b98:	f800283a 	ret

00000b9c <altera_avalon_jtag_uart_ioctl_fd>:
    return altera_avalon_jtag_uart_close(&dev->state, fd->fd_flags);
}

int 
altera_avalon_jtag_uart_ioctl_fd(alt_fd* fd, int req, void* arg)
{
     b9c:	deffff04 	addi	sp,sp,-4
     ba0:	dfc00015 	stw	ra,0(sp)
    altera_avalon_jtag_uart_dev* dev = (altera_avalon_jtag_uart_dev*) fd->dev;

    return altera_avalon_jtag_uart_ioctl(&dev->state, req, arg);
     ba4:	21000017 	ldw	r4,0(r4)
     ba8:	21000a04 	addi	r4,r4,40
     bac:	0000e6c0 	call	e6c <altera_avalon_jtag_uart_ioctl>
}
     bb0:	dfc00017 	ldw	ra,0(sp)
     bb4:	dec00104 	addi	sp,sp,4
     bb8:	f800283a 	ret

00000bbc <altera_avalon_jtag_uart_close_fd>:

#ifndef ALTERA_AVALON_JTAG_UART_SMALL

int 
altera_avalon_jtag_uart_close_fd(alt_fd* fd)
{
     bbc:	deffff04 	addi	sp,sp,-4
     bc0:	dfc00015 	stw	ra,0(sp)
     bc4:	2005883a 	mov	r2,r4
    altera_avalon_jtag_uart_dev* dev = (altera_avalon_jtag_uart_dev*) fd->dev; 

    return altera_avalon_jtag_uart_close(&dev->state, fd->fd_flags);
     bc8:	21000017 	ldw	r4,0(r4)
     bcc:	21000a04 	addi	r4,r4,40
     bd0:	11400217 	ldw	r5,8(r2)
     bd4:	0000c340 	call	c34 <altera_avalon_jtag_uart_close>
}
     bd8:	dfc00017 	ldw	ra,0(sp)
     bdc:	dec00104 	addi	sp,sp,4
     be0:	f800283a 	ret

00000be4 <altera_avalon_jtag_uart_write_fd>:
      fd->fd_flags);
}

int 
altera_avalon_jtag_uart_write_fd(alt_fd* fd, const char* buffer, int space)
{
     be4:	deffff04 	addi	sp,sp,-4
     be8:	dfc00015 	stw	ra,0(sp)
     bec:	2005883a 	mov	r2,r4
    altera_avalon_jtag_uart_dev* dev = (altera_avalon_jtag_uart_dev*) fd->dev; 

    return altera_avalon_jtag_uart_write(&dev->state, buffer, space,
     bf0:	21000017 	ldw	r4,0(r4)
     bf4:	21000a04 	addi	r4,r4,40
     bf8:	11c00217 	ldw	r7,8(r2)
     bfc:	00010480 	call	1048 <altera_avalon_jtag_uart_write>
      fd->fd_flags);
}
     c00:	dfc00017 	ldw	ra,0(sp)
     c04:	dec00104 	addi	sp,sp,4
     c08:	f800283a 	ret

00000c0c <altera_avalon_jtag_uart_read_fd>:
 *
 */

int 
altera_avalon_jtag_uart_read_fd(alt_fd* fd, char* buffer, int space)
{
     c0c:	deffff04 	addi	sp,sp,-4
     c10:	dfc00015 	stw	ra,0(sp)
     c14:	2005883a 	mov	r2,r4
    altera_avalon_jtag_uart_dev* dev = (altera_avalon_jtag_uart_dev*) fd->dev; 

    return altera_avalon_jtag_uart_read(&dev->state, buffer, space,
     c18:	21000017 	ldw	r4,0(r4)
     c1c:	21000a04 	addi	r4,r4,40
     c20:	11c00217 	ldw	r7,8(r2)
     c24:	0000ee00 	call	ee0 <altera_avalon_jtag_uart_read>
      fd->fd_flags);
}
     c28:	dfc00017 	ldw	ra,0(sp)
     c2c:	dec00104 	addi	sp,sp,4
     c30:	f800283a 	ret

00000c34 <altera_avalon_jtag_uart_close>:
{
  /* 
   * Wait for all transmit data to be emptied by the JTAG UART ISR, or
   * for a host-inactivity timeout, in which case transmit data will be lost
   */
  while ( (sp->tx_out != sp->tx_in) && (sp->host_inactive < sp->timeout) ) {
     c34:	21800c17 	ldw	r6,48(r4)
     c38:	2950000c 	andi	r5,r5,16384
     c3c:	280b003a 	cmpeq	r5,r5,zero
     c40:	00000306 	br	c50 <altera_avalon_jtag_uart_close+0x1c>
    if (flags & O_NONBLOCK) {
     c44:	2800021e 	bne	r5,zero,c50 <altera_avalon_jtag_uart_close+0x1c>
     c48:	00bffd44 	movi	r2,-11
     c4c:	f800283a 	ret
{
  /* 
   * Wait for all transmit data to be emptied by the JTAG UART ISR, or
   * for a host-inactivity timeout, in which case transmit data will be lost
   */
  while ( (sp->tx_out != sp->tx_in) && (sp->host_inactive < sp->timeout) ) {
     c50:	20800d17 	ldw	r2,52(r4)
     c54:	11800326 	beq	r2,r6,c64 <altera_avalon_jtag_uart_close+0x30>
     c58:	20c00917 	ldw	r3,36(r4)
     c5c:	20800117 	ldw	r2,4(r4)
     c60:	18bff836 	bltu	r3,r2,c44 <altera_avalon_jtag_uart_close+0x10>
     c64:	0005883a 	mov	r2,zero
      return -EWOULDBLOCK; 
    }
  }

  return 0;
}
     c68:	f800283a 	ret

00000c6c <altera_avalon_jtag_uart_timeout>:
static alt_u32 
altera_avalon_jtag_uart_timeout(void* context) 
{
  altera_avalon_jtag_uart_state* sp = (altera_avalon_jtag_uart_state *) context;

  unsigned int control = IORD_ALTERA_AVALON_JTAG_UART_CONTROL(sp->base);
     c6c:	20800017 	ldw	r2,0(r4)
     c70:	10c00104 	addi	r3,r2,4
     c74:	18800037 	ldwio	r2,0(r3)

  if (control & ALTERA_AVALON_JTAG_UART_CONTROL_AC_MSK)
     c78:	01410004 	movi	r5,1024
     c7c:	1144703a 	and	r2,r2,r5
     c80:	10000526 	beq	r2,zero,c98 <altera_avalon_jtag_uart_timeout+0x2c>
  {
    IOWR_ALTERA_AVALON_JTAG_UART_CONTROL(sp->base, sp->irq_enable | ALTERA_AVALON_JTAG_UART_CONTROL_AC_MSK);
     c84:	20800817 	ldw	r2,32(r4)
     c88:	1144b03a 	or	r2,r2,r5
     c8c:	18800035 	stwio	r2,0(r3)
    sp->host_inactive = 0;
     c90:	20000915 	stw	zero,36(r4)
     c94:	00000606 	br	cb0 <altera_avalon_jtag_uart_timeout+0x44>
  }
  else if (sp->host_inactive < INT_MAX - 2) {
     c98:	20c00917 	ldw	r3,36(r4)
     c9c:	00a00034 	movhi	r2,32768
     ca0:	10bfff04 	addi	r2,r2,-4
     ca4:	10c00236 	bltu	r2,r3,cb0 <altera_avalon_jtag_uart_timeout+0x44>
    sp->host_inactive++;
     ca8:	18800044 	addi	r2,r3,1
     cac:	20800915 	stw	r2,36(r4)
      ALT_FLAG_POST (sp->events, ALT_JTAG_UART_TIMEOUT, OS_FLAG_SET);
    }
  }

  return alt_ticks_per_second();
}
     cb0:	00800034 	movhi	r2,0
     cb4:	1093ab04 	addi	r2,r2,20140
     cb8:	10800017 	ldw	r2,0(r2)
     cbc:	f800283a 	ret

00000cc0 <altera_avalon_jtag_uart_init>:
 * Return 1 on sucessful IRQ register and 0 on failure.
 */

void altera_avalon_jtag_uart_init(altera_avalon_jtag_uart_state* sp, 
                                  int irq_controller_id, int irq)
{
     cc0:	defffe04 	addi	sp,sp,-8
     cc4:	dfc00115 	stw	ra,4(sp)
     cc8:	dc000015 	stw	r16,0(sp)
     ccc:	2021883a 	mov	r16,r4
  ALT_FLAG_CREATE(&sp->events, 0);
  ALT_SEM_CREATE(&sp->read_lock, 1);
  ALT_SEM_CREATE(&sp->write_lock, 1);

  /* enable read interrupts at the device */
  sp->irq_enable = ALTERA_AVALON_JTAG_UART_CONTROL_RE_MSK;
     cd0:	00c00044 	movi	r3,1
     cd4:	20c00815 	stw	r3,32(r4)

  IOWR_ALTERA_AVALON_JTAG_UART_CONTROL(sp->base, sp->irq_enable); 
     cd8:	20800017 	ldw	r2,0(r4)
     cdc:	10c00135 	stwio	r3,4(r2)
  /* register the interrupt handler */
#ifdef ALT_ENHANCED_INTERRUPT_API_PRESENT
  alt_ic_isr_register(irq_controller_id, irq, altera_avalon_jtag_uart_irq, 
                      sp, NULL);
#else
  alt_irq_register(irq, sp, altera_avalon_jtag_uart_irq);
     ce0:	3009883a 	mov	r4,r6
     ce4:	800b883a 	mov	r5,r16
     ce8:	01800034 	movhi	r6,0
     cec:	31834e04 	addi	r6,r6,3384
     cf0:	00008ec0 	call	8ec <alt_irq_register>
#endif  

  /* Register an alarm to go off every second to check for presence of host */
  sp->host_inactive = 0;
     cf4:	80000915 	stw	zero,36(r16)

  if (alt_alarm_start(&sp->alarm, alt_ticks_per_second(), 
     cf8:	81000204 	addi	r4,r16,8
     cfc:	00800034 	movhi	r2,0
     d00:	1093ab04 	addi	r2,r2,20140
     d04:	11400017 	ldw	r5,0(r2)
     d08:	01800034 	movhi	r6,0
     d0c:	31831b04 	addi	r6,r6,3180
     d10:	800f883a 	mov	r7,r16
     d14:	00015500 	call	1550 <alt_alarm_start>
     d18:	1000030e 	bge	r2,zero,d28 <altera_avalon_jtag_uart_init+0x68>
    &altera_avalon_jtag_uart_timeout, sp) < 0)
  {
    /* If we can't set the alarm then record "don't know if host present" 
     * and behave as though the host is present.
     */
    sp->timeout = INT_MAX;
     d1c:	00a00034 	movhi	r2,32768
     d20:	10bfffc4 	addi	r2,r2,-1
     d24:	80800115 	stw	r2,4(r16)
  }

  /* ALT_LOG - see altera_hal/HAL/inc/sys/alt_log_printf.h */ 
  ALT_LOG_JTAG_UART_ALARM_REGISTER(sp, sp->base);
}
     d28:	dfc00117 	ldw	ra,4(sp)
     d2c:	dc000017 	ldw	r16,0(sp)
     d30:	dec00204 	addi	sp,sp,8
     d34:	f800283a 	ret

00000d38 <altera_avalon_jtag_uart_irq>:
#else
static void altera_avalon_jtag_uart_irq(void* context, alt_u32 id)
#endif
{
  altera_avalon_jtag_uart_state* sp = (altera_avalon_jtag_uart_state*) context;
  unsigned int base = sp->base;
     d38:	22000017 	ldw	r8,0(r4)
     d3c:	03800104 	movi	r14,4
     d40:	4399883a 	add	r12,r8,r14
     d44:	037ffff4 	movhi	r13,65535
  /* ALT_LOG - see altera_hal/HAL/inc/sys/alt_log_printf.h */ 
  ALT_LOG_JTAG_UART_ISR_FUNCTION(base, sp);

  for ( ; ; )
  {
    unsigned int control = IORD_ALTERA_AVALON_JTAG_UART_CONTROL(base);
     d48:	62c00037 	ldwio	r11,0(r12)

    /* Return once nothing more to do */
    if ((control & (ALTERA_AVALON_JTAG_UART_CONTROL_RI_MSK | ALTERA_AVALON_JTAG_UART_CONTROL_WI_MSK)) == 0)
     d4c:	5880c00c 	andi	r2,r11,768
     d50:	10004526 	beq	r2,zero,e68 <altera_avalon_jtag_uart_irq+0x130>
      break;

    if (control & ALTERA_AVALON_JTAG_UART_CONTROL_RI_MSK)
     d54:	5880400c 	andi	r2,r11,256
     d58:	10002126 	beq	r2,zero,de0 <altera_avalon_jtag_uart_irq+0xa8>
      for ( ; ; )
      {
        /* Check whether there is space in the buffer.  If not then we must not
         * read any characters from the buffer as they will be lost.
         */
        unsigned int next = (sp->rx_in + 1) % ALTERA_AVALON_JTAG_UART_BUF_LEN;
     d5c:	20800a17 	ldw	r2,40(r4)
        if (next == sp->rx_out)
     d60:	10800044 	addi	r2,r2,1
     d64:	1081ffcc 	andi	r2,r2,2047
     d68:	20c00b17 	ldw	r3,44(r4)
     d6c:	10c01626 	beq	r2,r3,dc8 <altera_avalon_jtag_uart_irq+0x90>
     d70:	02a00014 	movui	r10,32768
     d74:	02400e04 	movi	r9,56
     d78:	01c00044 	movi	r7,1
     d7c:	0181ffc4 	movi	r6,2047
          break;

        /* Try to remove a character from the FIFO and find out whether there
         * are any more characters remaining.
         */
        data = IORD_ALTERA_AVALON_JTAG_UART_DATA(base);
     d80:	41400037 	ldwio	r5,0(r8)
        
        if ((data & ALTERA_AVALON_JTAG_UART_DATA_RVALID_MSK) == 0)
     d84:	2a84703a 	and	r2,r5,r10
     d88:	10000d26 	beq	r2,zero,dc0 <altera_avalon_jtag_uart_irq+0x88>
          break;

        sp->rx_buf[sp->rx_in] = (data & ALTERA_AVALON_JTAG_UART_DATA_DATA_MSK) >> ALTERA_AVALON_JTAG_UART_DATA_DATA_OFST;
     d8c:	20800a17 	ldw	r2,40(r4)
     d90:	1105883a 	add	r2,r2,r4
     d94:	1245883a 	add	r2,r2,r9
     d98:	11400005 	stb	r5,0(r2)
        sp->rx_in = (sp->rx_in + 1) % ALTERA_AVALON_JTAG_UART_BUF_LEN;
     d9c:	20800a17 	ldw	r2,40(r4)
     da0:	11c5883a 	add	r2,r2,r7
     da4:	1184703a 	and	r2,r2,r6
     da8:	20800a15 	stw	r2,40(r4)
      for ( ; ; )
      {
        /* Check whether there is space in the buffer.  If not then we must not
         * read any characters from the buffer as they will be lost.
         */
        unsigned int next = (sp->rx_in + 1) % ALTERA_AVALON_JTAG_UART_BUF_LEN;
     dac:	20800a17 	ldw	r2,40(r4)
        if (next == sp->rx_out)
     db0:	11c5883a 	add	r2,r2,r7
     db4:	1184703a 	and	r2,r2,r6
     db8:	20c00b17 	ldw	r3,44(r4)
     dbc:	10fff01e 	bne	r2,r3,d80 <altera_avalon_jtag_uart_irq+0x48>

        /* Post an event to notify jtag_uart_read that a character has been read */
        ALT_FLAG_POST (sp->events, ALT_JTAG_UART_READ_RDY, OS_FLAG_SET);
      }

      if (data & ALTERA_AVALON_JTAG_UART_DATA_RAVAIL_MSK)
     dc0:	2b44703a 	and	r2,r5,r13
     dc4:	10000626 	beq	r2,zero,de0 <altera_avalon_jtag_uart_irq+0xa8>
      {
        /* If there is still data available here then the buffer is full 
         * so turn off receive interrupts until some space becomes available.
         */
        sp->irq_enable &= ~ALTERA_AVALON_JTAG_UART_CONTROL_RE_MSK;
     dc8:	20800817 	ldw	r2,32(r4)
     dcc:	00ffff84 	movi	r3,-2
     dd0:	10c4703a 	and	r2,r2,r3
     dd4:	20800815 	stw	r2,32(r4)
        IOWR_ALTERA_AVALON_JTAG_UART_CONTROL(base, sp->irq_enable);
     dd8:	60800035 	stwio	r2,0(r12)
        
        /* Dummy read to ensure IRQ is cleared prior to ISR completion */
        IORD_ALTERA_AVALON_JTAG_UART_CONTROL(base);
     ddc:	60800037 	ldwio	r2,0(r12)
      }
    }

    if (control & ALTERA_AVALON_JTAG_UART_CONTROL_WI_MSK)
     de0:	5880800c 	andi	r2,r11,512
     de4:	103fd826 	beq	r2,zero,d48 <altera_avalon_jtag_uart_irq+0x10>
    {
      /* process a write irq */
      unsigned int space = (control & ALTERA_AVALON_JTAG_UART_CONTROL_WSPACE_MSK) >> ALTERA_AVALON_JTAG_UART_CONTROL_WSPACE_OFST;
     de8:	5b44703a 	and	r2,r11,r13
     dec:	100ad43a 	srli	r5,r2,16

      while (space > 0 && sp->tx_out != sp->tx_in)
     df0:	283fd526 	beq	r5,zero,d48 <altera_avalon_jtag_uart_irq+0x10>
     df4:	20c00d17 	ldw	r3,52(r4)
     df8:	20800c17 	ldw	r2,48(r4)
     dfc:	18801126 	beq	r3,r2,e44 <altera_avalon_jtag_uart_irq+0x10c>
     e00:	02420e04 	movi	r9,2104
     e04:	01800044 	movi	r6,1
     e08:	01c1ffc4 	movi	r7,2047
      {
        IOWR_ALTERA_AVALON_JTAG_UART_DATA(base, sp->tx_buf[sp->tx_out]);
     e0c:	20800d17 	ldw	r2,52(r4)
     e10:	1105883a 	add	r2,r2,r4
     e14:	1245883a 	add	r2,r2,r9
     e18:	10800007 	ldb	r2,0(r2)
     e1c:	40800035 	stwio	r2,0(r8)

        sp->tx_out = (sp->tx_out + 1) % ALTERA_AVALON_JTAG_UART_BUF_LEN;
     e20:	20800d17 	ldw	r2,52(r4)
     e24:	1185883a 	add	r2,r2,r6
     e28:	11c4703a 	and	r2,r2,r7
     e2c:	20800d15 	stw	r2,52(r4)

        /* Post an event to notify jtag_uart_write that a character has been written */
        ALT_FLAG_POST (sp->events, ALT_JTAG_UART_WRITE_RDY, OS_FLAG_SET);

        space--;
     e30:	298bc83a 	sub	r5,r5,r6
    if (control & ALTERA_AVALON_JTAG_UART_CONTROL_WI_MSK)
    {
      /* process a write irq */
      unsigned int space = (control & ALTERA_AVALON_JTAG_UART_CONTROL_WSPACE_MSK) >> ALTERA_AVALON_JTAG_UART_CONTROL_WSPACE_OFST;

      while (space > 0 && sp->tx_out != sp->tx_in)
     e34:	283fc426 	beq	r5,zero,d48 <altera_avalon_jtag_uart_irq+0x10>
     e38:	20c00d17 	ldw	r3,52(r4)
     e3c:	20800c17 	ldw	r2,48(r4)
     e40:	18bff21e 	bne	r3,r2,e0c <altera_avalon_jtag_uart_irq+0xd4>
      }

      if (space > 0)
      {
        /* If we don't have any more data available then turn off the TX interrupt */
        sp->irq_enable &= ~ALTERA_AVALON_JTAG_UART_CONTROL_WE_MSK;
     e44:	20c00817 	ldw	r3,32(r4)
     e48:	00bfff44 	movi	r2,-3
     e4c:	1886703a 	and	r3,r3,r2
     e50:	20c00815 	stw	r3,32(r4)
        IOWR_ALTERA_AVALON_JTAG_UART_CONTROL(sp->base, sp->irq_enable);
     e54:	20800017 	ldw	r2,0(r4)
     e58:	1385883a 	add	r2,r2,r14
     e5c:	10c00035 	stwio	r3,0(r2)
        
        /* Dummy read to ensure IRQ is cleared prior to ISR completion */
        IORD_ALTERA_AVALON_JTAG_UART_CONTROL(base);
     e60:	60800037 	ldwio	r2,0(r12)
     e64:	003fb806 	br	d48 <altera_avalon_jtag_uart_irq+0x10>
     e68:	f800283a 	ret

00000e6c <altera_avalon_jtag_uart_ioctl>:
altera_avalon_jtag_uart_ioctl(altera_avalon_jtag_uart_state* sp, int req,
  void* arg)
{
  int rc = -ENOTTY;

  switch (req)
     e6c:	009a8044 	movi	r2,27137
     e70:	28800326 	beq	r5,r2,e80 <altera_avalon_jtag_uart_ioctl+0x14>
     e74:	009a8084 	movi	r2,27138
     e78:	2880171e 	bne	r5,r2,ed8 <altera_avalon_jtag_uart_ioctl+0x6c>
     e7c:	00000d06 	br	eb4 <altera_avalon_jtag_uart_ioctl+0x48>
  {
  case TIOCSTIMEOUT:
    /* Set the time to wait until assuming host is not connected */
    if (sp->timeout != INT_MAX)
     e80:	20c00117 	ldw	r3,4(r4)
     e84:	00a00034 	movhi	r2,32768
     e88:	10bfffc4 	addi	r2,r2,-1
     e8c:	18801226 	beq	r3,r2,ed8 <altera_avalon_jtag_uart_ioctl+0x6c>
    {
      int timeout = *((int *)arg);
      sp->timeout = (timeout >= 2 && timeout < INT_MAX) ? timeout : INT_MAX - 1;
     e90:	31800017 	ldw	r6,0(r6)
     e94:	30ffff84 	addi	r3,r6,-2
     e98:	10bfff44 	addi	r2,r2,-3
     e9c:	10c0022e 	bgeu	r2,r3,ea8 <altera_avalon_jtag_uart_ioctl+0x3c>
     ea0:	01a00034 	movhi	r6,32768
     ea4:	31bfff84 	addi	r6,r6,-2
     ea8:	21800115 	stw	r6,4(r4)
     eac:	0005883a 	mov	r2,zero
     eb0:	f800283a 	ret
    }
    break;

  case TIOCGCONNECTED:
    /* Find out whether host is connected */
    if (sp->timeout != INT_MAX)
     eb4:	20c00117 	ldw	r3,4(r4)
     eb8:	00a00034 	movhi	r2,32768
     ebc:	10bfffc4 	addi	r2,r2,-1
     ec0:	18800526 	beq	r3,r2,ed8 <altera_avalon_jtag_uart_ioctl+0x6c>
    {
      *((int *)arg) = (sp->host_inactive < sp->timeout) ? 1 : 0;
     ec4:	20800917 	ldw	r2,36(r4)
     ec8:	10c5803a 	cmpltu	r2,r2,r3
     ecc:	30800015 	stw	r2,0(r6)
     ed0:	0005883a 	mov	r2,zero
     ed4:	f800283a 	ret
     ed8:	00bff9c4 	movi	r2,-25
  default:
    break;
  }

  return rc;
}
     edc:	f800283a 	ret

00000ee0 <altera_avalon_jtag_uart_read>:
/* ----------------------------------------------------------- */

int 
altera_avalon_jtag_uart_read(altera_avalon_jtag_uart_state* sp, 
  char * buffer, int space, int flags)
{
     ee0:	defff604 	addi	sp,sp,-40
     ee4:	dfc00915 	stw	ra,36(sp)
     ee8:	df000815 	stw	fp,32(sp)
     eec:	ddc00715 	stw	r23,28(sp)
     ef0:	dd800615 	stw	r22,24(sp)
     ef4:	dd400515 	stw	r21,20(sp)
     ef8:	dd000415 	stw	r20,16(sp)
     efc:	dcc00315 	stw	r19,12(sp)
     f00:	dc800215 	stw	r18,8(sp)
     f04:	dc400115 	stw	r17,4(sp)
     f08:	dc000015 	stw	r16,0(sp)
     f0c:	2025883a 	mov	r18,r4
     f10:	282f883a 	mov	r23,r5
     f14:	3027883a 	mov	r19,r6
     f18:	3839883a 	mov	fp,r7
   * When running in a multi threaded environment, obtain the "read_lock"
   * semaphore. This ensures that reading from the device is thread-safe.
   */
  ALT_SEM_PEND (sp->read_lock, 0);

  while (space > 0)
     f1c:	0180220e 	bge	zero,r6,fa8 <altera_avalon_jtag_uart_read+0xc8>
     f20:	b82b883a 	mov	r21,r23
    unsigned int in, out;

    /* Read as much data as possible */
    do
    {
      in  = sp->rx_in;
     f24:	95800a17 	ldw	r22,40(r18)
      out = sp->rx_out;
     f28:	94400b17 	ldw	r17,44(r18)

      if (in >= out)
     f2c:	b4400236 	bltu	r22,r17,f38 <altera_avalon_jtag_uart_read+0x58>
        n = in - out;
     f30:	b461c83a 	sub	r16,r22,r17
     f34:	00000206 	br	f40 <altera_avalon_jtag_uart_read+0x60>
      else
        n = ALTERA_AVALON_JTAG_UART_BUF_LEN - out;
     f38:	00820004 	movi	r2,2048
     f3c:	1461c83a 	sub	r16,r2,r17

      if (n == 0)
     f40:	80000d26 	beq	r16,zero,f78 <altera_avalon_jtag_uart_read+0x98>
        break; /* No more data available */

      if (n > space)
     f44:	9829883a 	mov	r20,r19
     f48:	9c001d36 	bltu	r19,r16,fc0 <altera_avalon_jtag_uart_read+0xe0>
        n = space;

      memcpy(ptr, sp->rx_buf + out, n);
     f4c:	91400e04 	addi	r5,r18,56
     f50:	a809883a 	mov	r4,r21
     f54:	2c4b883a 	add	r5,r5,r17
     f58:	800d883a 	mov	r6,r16
     f5c:	000084c0 	call	84c <memcpy>
      ptr   += n;
     f60:	ac2b883a 	add	r21,r21,r16
      space -= n;
     f64:	9c27c83a 	sub	r19,r19,r16

      sp->rx_out = (out + n) % ALTERA_AVALON_JTAG_UART_BUF_LEN;
     f68:	8445883a 	add	r2,r16,r17
     f6c:	1081ffcc 	andi	r2,r2,2047
     f70:	90800b15 	stw	r2,44(r18)
    }
    while (space > 0);
     f74:	04ffeb16 	blt	zero,r19,f24 <altera_avalon_jtag_uart_read+0x44>

    /* If we read any data then return it */
    if (ptr != buffer)
     f78:	adc01c1e 	bne	r21,r23,fec <altera_avalon_jtag_uart_read+0x10c>
      break;

    /* If in non-blocking mode then return error */
    if (flags & O_NONBLOCK)
     f7c:	e090000c 	andi	r2,fp,16384
     f80:	10000d1e 	bne	r2,zero,fb8 <altera_avalon_jtag_uart_read+0xd8>
      while (in == sp->rx_in && sp->host_inactive < sp->timeout)
        ;
    }
#else
    /* No OS: Always spin */
    while (in == sp->rx_in && sp->host_inactive < sp->timeout)
     f84:	90800a17 	ldw	r2,40(r18)
     f88:	b080031e 	bne	r22,r2,f98 <altera_avalon_jtag_uart_read+0xb8>
     f8c:	90c00917 	ldw	r3,36(r18)
     f90:	90800117 	ldw	r2,4(r18)
     f94:	18bffb36 	bltu	r3,r2,f84 <altera_avalon_jtag_uart_read+0xa4>
      ;
#endif /* __ucosii__ */

    if (in == sp->rx_in)
     f98:	90800a17 	ldw	r2,40(r18)
     f9c:	b0800426 	beq	r22,r2,fb0 <altera_avalon_jtag_uart_read+0xd0>
   * When running in a multi threaded environment, obtain the "read_lock"
   * semaphore. This ensures that reading from the device is thread-safe.
   */
  ALT_SEM_PEND (sp->read_lock, 0);

  while (space > 0)
     fa0:	04c0030e 	bge	zero,r19,fb0 <altera_avalon_jtag_uart_read+0xd0>
     fa4:	003fde06 	br	f20 <altera_avalon_jtag_uart_read+0x40>
    alt_irq_enable_all(context);
  }

  if (ptr != buffer)
    return ptr - buffer;
  else if (flags & O_NONBLOCK)
     fa8:	3890000c 	andi	r2,r7,16384
     fac:	1000021e 	bne	r2,zero,fb8 <altera_avalon_jtag_uart_read+0xd8>
     fb0:	00bffec4 	movi	r2,-5
     fb4:	00001806 	br	1018 <altera_avalon_jtag_uart_read+0x138>
     fb8:	00bffd44 	movi	r2,-11
     fbc:	00001606 	br	1018 <altera_avalon_jtag_uart_read+0x138>
        break; /* No more data available */

      if (n > space)
        n = space;

      memcpy(ptr, sp->rx_buf + out, n);
     fc0:	91400e04 	addi	r5,r18,56
     fc4:	a809883a 	mov	r4,r21
     fc8:	894b883a 	add	r5,r17,r5
     fcc:	980d883a 	mov	r6,r19
     fd0:	000084c0 	call	84c <memcpy>
      ptr   += n;
     fd4:	aceb883a 	add	r21,r21,r19
      space -= n;
     fd8:	0027883a 	mov	r19,zero

      sp->rx_out = (out + n) % ALTERA_AVALON_JTAG_UART_BUF_LEN;
     fdc:	a445883a 	add	r2,r20,r17
     fe0:	1081ffcc 	andi	r2,r2,2047
     fe4:	90800b15 	stw	r2,44(r18)
     fe8:	003fe306 	br	f78 <altera_avalon_jtag_uart_read+0x98>
static ALT_INLINE alt_irq_context ALT_ALWAYS_INLINE 
       alt_irq_disable_all (void)
{
  alt_irq_context context;

  NIOS2_READ_STATUS (context);
     fec:	0009303a 	rdctl	r4,status

  NIOS2_WRITE_STATUS (context & ~NIOS2_STATUS_PIE_MSK);
     ff0:	00bfff84 	movi	r2,-2
     ff4:	2084703a 	and	r2,r4,r2
     ff8:	1001703a 	wrctl	status,r2

  if (ptr != buffer)
  {
    /* If we read any data then there is space in the buffer so enable interrupts */
    context = alt_irq_disable_all();
    sp->irq_enable |= ALTERA_AVALON_JTAG_UART_CONTROL_RE_MSK;
     ffc:	90800817 	ldw	r2,32(r18)
    1000:	10800054 	ori	r2,r2,1
    1004:	90800815 	stw	r2,32(r18)
    IOWR_ALTERA_AVALON_JTAG_UART_CONTROL(sp->base, sp->irq_enable);
    1008:	90c00017 	ldw	r3,0(r18)
    100c:	18800135 	stwio	r2,4(r3)
  status &= ~NIOS2_STATUS_PIE_MSK;
  status |= (context & NIOS2_STATUS_PIE_MSK);
  
  NIOS2_WRITE_STATUS (status);
#else
  NIOS2_WRITE_STATUS (context);
    1010:	2001703a 	wrctl	status,r4
    alt_irq_enable_all(context);
  }

  if (ptr != buffer)
    return ptr - buffer;
    1014:	adc5c83a 	sub	r2,r21,r23
  else if (flags & O_NONBLOCK)
    return -EWOULDBLOCK;
  else
    return -EIO;
}
    1018:	dfc00917 	ldw	ra,36(sp)
    101c:	df000817 	ldw	fp,32(sp)
    1020:	ddc00717 	ldw	r23,28(sp)
    1024:	dd800617 	ldw	r22,24(sp)
    1028:	dd400517 	ldw	r21,20(sp)
    102c:	dd000417 	ldw	r20,16(sp)
    1030:	dcc00317 	ldw	r19,12(sp)
    1034:	dc800217 	ldw	r18,8(sp)
    1038:	dc400117 	ldw	r17,4(sp)
    103c:	dc000017 	ldw	r16,0(sp)
    1040:	dec00a04 	addi	sp,sp,40
    1044:	f800283a 	ret

00001048 <altera_avalon_jtag_uart_write>:
/* ----------------------------------------------------------- */

int 
altera_avalon_jtag_uart_write(altera_avalon_jtag_uart_state* sp, 
  const char * ptr, int count, int flags)
{
    1048:	defff804 	addi	sp,sp,-32
    104c:	dfc00715 	stw	ra,28(sp)
    1050:	dd800615 	stw	r22,24(sp)
    1054:	dd400515 	stw	r21,20(sp)
    1058:	dd000415 	stw	r20,16(sp)
    105c:	dcc00315 	stw	r19,12(sp)
    1060:	dc800215 	stw	r18,8(sp)
    1064:	dc400115 	stw	r17,4(sp)
    1068:	dc000015 	stw	r16,0(sp)
    106c:	2021883a 	mov	r16,r4
    1070:	282d883a 	mov	r22,r5
    1074:	3011883a 	mov	r8,r6
    1078:	382b883a 	mov	r21,r7
  ALT_SEM_PEND (sp->write_lock, 0);

  do
  {
    /* Copy as much as we can into the transmit buffer */
    while (count > 0)
    107c:	01800616 	blt	zero,r6,1098 <altera_avalon_jtag_uart_write+0x50>
    1080:	2829883a 	mov	r20,r5
    1084:	00002106 	br	110c <altera_avalon_jtag_uart_write+0xc4>
   * semaphore so that other threads can access the buffer.
   */
  ALT_SEM_POST (sp->write_lock);

  if (ptr != start)
    return ptr - start;
    1088:	a585c83a 	sub	r2,r20,r22
    108c:	00004306 	br	119c <altera_avalon_jtag_uart_write+0x154>
  else if (flags & O_NONBLOCK)
    1090:	00bffd44 	movi	r2,-11
    1094:	00004106 	br	119c <altera_avalon_jtag_uart_write+0x154>
  ALT_SEM_PEND (sp->write_lock, 0);

  do
  {
    /* Copy as much as we can into the transmit buffer */
    while (count > 0)
    1098:	2829883a 	mov	r20,r5
    {
      /* We need a stable value of the out pointer to calculate the space available */
      in  = sp->tx_in;
    109c:	84800c17 	ldw	r18,48(r16)
      out = sp->tx_out;
    10a0:	81400d17 	ldw	r5,52(r16)

      if (in < out)
    10a4:	9140032e 	bgeu	r18,r5,10b4 <altera_avalon_jtag_uart_write+0x6c>
        n = out - 1 - in;
    10a8:	2c85c83a 	sub	r2,r5,r18
    10ac:	11bfffc4 	addi	r6,r2,-1
    10b0:	00000606 	br	10cc <altera_avalon_jtag_uart_write+0x84>
      else if (out > 0)
    10b4:	28000326 	beq	r5,zero,10c4 <altera_avalon_jtag_uart_write+0x7c>
        n = ALTERA_AVALON_JTAG_UART_BUF_LEN - in;
    10b8:	00820004 	movi	r2,2048
    10bc:	148dc83a 	sub	r6,r2,r18
    10c0:	00000206 	br	10cc <altera_avalon_jtag_uart_write+0x84>
      else
        n = ALTERA_AVALON_JTAG_UART_BUF_LEN - 1 - in;
    10c4:	0081ffc4 	movi	r2,2047
    10c8:	148dc83a 	sub	r6,r2,r18

      if (n == 0)
    10cc:	30002626 	beq	r6,zero,1168 <altera_avalon_jtag_uart_write+0x120>
        break;

      if (n > count)
    10d0:	4027883a 	mov	r19,r8
    10d4:	3023883a 	mov	r17,r6
    10d8:	4180012e 	bgeu	r8,r6,10e0 <altera_avalon_jtag_uart_write+0x98>
    10dc:	4023883a 	mov	r17,r8
        n = count;

      memcpy(sp->tx_buf + in, ptr, n);
    10e0:	81020e04 	addi	r4,r16,2104
    10e4:	2489883a 	add	r4,r4,r18
    10e8:	a00b883a 	mov	r5,r20
    10ec:	880d883a 	mov	r6,r17
    10f0:	000084c0 	call	84c <memcpy>
      ptr   += n;
    10f4:	a469883a 	add	r20,r20,r17
      count -= n;
    10f8:	9c51c83a 	sub	r8,r19,r17

      sp->tx_in = (in + n) % ALTERA_AVALON_JTAG_UART_BUF_LEN;
    10fc:	9445883a 	add	r2,r18,r17
    1100:	1081ffcc 	andi	r2,r2,2047
    1104:	80800c15 	stw	r2,48(r16)
  ALT_SEM_PEND (sp->write_lock, 0);

  do
  {
    /* Copy as much as we can into the transmit buffer */
    while (count > 0)
    1108:	023fe416 	blt	zero,r8,109c <altera_avalon_jtag_uart_write+0x54>
static ALT_INLINE alt_irq_context ALT_ALWAYS_INLINE 
       alt_irq_disable_all (void)
{
  alt_irq_context context;

  NIOS2_READ_STATUS (context);
    110c:	0009303a 	rdctl	r4,status

  NIOS2_WRITE_STATUS (context & ~NIOS2_STATUS_PIE_MSK);
    1110:	00bfff84 	movi	r2,-2
    1114:	2084703a 	and	r2,r4,r2
    1118:	1001703a 	wrctl	status,r2
     *
     * For now kick the interrupt routine every time to make it transmit 
     * the data 
     */
    context = alt_irq_disable_all();
    sp->irq_enable |= ALTERA_AVALON_JTAG_UART_CONTROL_WE_MSK;
    111c:	80800817 	ldw	r2,32(r16)
    1120:	10800094 	ori	r2,r2,2
    1124:	80800815 	stw	r2,32(r16)
    IOWR_ALTERA_AVALON_JTAG_UART_CONTROL(sp->base, sp->irq_enable);
    1128:	80c00017 	ldw	r3,0(r16)
    112c:	18800135 	stwio	r2,4(r3)
  status &= ~NIOS2_STATUS_PIE_MSK;
  status |= (context & NIOS2_STATUS_PIE_MSK);
  
  NIOS2_WRITE_STATUS (status);
#else
  NIOS2_WRITE_STATUS (context);
    1130:	2001703a 	wrctl	status,r4
    1134:	00000706 	br	1154 <altera_avalon_jtag_uart_write+0x10c>
      /*
       * No OS present: Always wait for data to be removed from buffer.  Once
       * the interrupt routine has removed some data then we will be able to
       * insert some more.
       */
      while (out == sp->tx_out && sp->host_inactive < sp->timeout)
    1138:	80800d17 	ldw	r2,52(r16)
    113c:	1140031e 	bne	r2,r5,114c <altera_avalon_jtag_uart_write+0x104>
    1140:	80c00917 	ldw	r3,36(r16)
    1144:	80800117 	ldw	r2,4(r16)
    1148:	18bffb36 	bltu	r3,r2,1138 <altera_avalon_jtag_uart_write+0xf0>
        ;
#endif /* __ucosii__ */

      if (out == sp->tx_out)
    114c:	80800d17 	ldw	r2,52(r16)
    1150:	117fed1e 	bne	r2,r5,1108 <altera_avalon_jtag_uart_write+0xc0>
   * Now that access to the circular buffer is complete, release the write
   * semaphore so that other threads can access the buffer.
   */
  ALT_SEM_POST (sp->write_lock);

  if (ptr != start)
    1154:	b53fcc1e 	bne	r22,r20,1088 <altera_avalon_jtag_uart_write+0x40>
    return ptr - start;
  else if (flags & O_NONBLOCK)
    1158:	a890000c 	andi	r2,r21,16384
    115c:	103fcc1e 	bne	r2,zero,1090 <altera_avalon_jtag_uart_write+0x48>
    1160:	00bffec4 	movi	r2,-5
    1164:	00000d06 	br	119c <altera_avalon_jtag_uart_write+0x154>
static ALT_INLINE alt_irq_context ALT_ALWAYS_INLINE 
       alt_irq_disable_all (void)
{
  alt_irq_context context;

  NIOS2_READ_STATUS (context);
    1168:	0009303a 	rdctl	r4,status

  NIOS2_WRITE_STATUS (context & ~NIOS2_STATUS_PIE_MSK);
    116c:	00bfff84 	movi	r2,-2
    1170:	2084703a 	and	r2,r4,r2
    1174:	1001703a 	wrctl	status,r2
     *
     * For now kick the interrupt routine every time to make it transmit 
     * the data 
     */
    context = alt_irq_disable_all();
    sp->irq_enable |= ALTERA_AVALON_JTAG_UART_CONTROL_WE_MSK;
    1178:	80800817 	ldw	r2,32(r16)
    117c:	10800094 	ori	r2,r2,2
    1180:	80800815 	stw	r2,32(r16)
    IOWR_ALTERA_AVALON_JTAG_UART_CONTROL(sp->base, sp->irq_enable);
    1184:	80c00017 	ldw	r3,0(r16)
    1188:	18800135 	stwio	r2,4(r3)
  status &= ~NIOS2_STATUS_PIE_MSK;
  status |= (context & NIOS2_STATUS_PIE_MSK);
  
  NIOS2_WRITE_STATUS (status);
#else
  NIOS2_WRITE_STATUS (context);
    118c:	2001703a 	wrctl	status,r4
     * some has been sent 
     */
    /* consider: test whether there is anything there while doing this and delay for at most 2s. */
    if (count > 0)
    {
      if (flags & O_NONBLOCK)
    1190:	a890000c 	andi	r2,r21,16384
    1194:	103fe826 	beq	r2,zero,1138 <altera_avalon_jtag_uart_write+0xf0>
    1198:	003fee06 	br	1154 <altera_avalon_jtag_uart_write+0x10c>
    return ptr - start + count;
  }
#endif
  else
    return -EIO; /* Host not connected */
}
    119c:	dfc00717 	ldw	ra,28(sp)
    11a0:	dd800617 	ldw	r22,24(sp)
    11a4:	dd400517 	ldw	r21,20(sp)
    11a8:	dd000417 	ldw	r20,16(sp)
    11ac:	dcc00317 	ldw	r19,12(sp)
    11b0:	dc800217 	ldw	r18,8(sp)
    11b4:	dc400117 	ldw	r17,4(sp)
    11b8:	dc000017 	ldw	r16,0(sp)
    11bc:	dec00804 	addi	sp,sp,32
    11c0:	f800283a 	ret

000011c4 <alt_avalon_timer_sc_init>:
 * auto-generated alt_sys_init() function.
 */

void alt_avalon_timer_sc_init (void* base, alt_u32 irq_controller_id, 
                                alt_u32 irq, alt_u32 freq)
{
    11c4:	deffff04 	addi	sp,sp,-4
    11c8:	dfc00015 	stw	ra,0(sp)
    11cc:	200b883a 	mov	r5,r4
 * in order to initialise the value of the clock frequency.
 */

static ALT_INLINE int ALT_ALWAYS_INLINE alt_sysclk_init (alt_u32 nticks)
{
  if (! _alt_tick_rate)
    11d0:	00c00034 	movhi	r3,0
    11d4:	18d3ab04 	addi	r3,r3,20140
    11d8:	18800017 	ldw	r2,0(r3)
    11dc:	1000011e 	bne	r2,zero,11e4 <alt_avalon_timer_sc_init+0x20>
  {
    _alt_tick_rate = nticks;
    11e0:	19c00015 	stw	r7,0(r3)
  
  alt_sysclk_init (freq);
  
  /* set to free running mode */
  
  IOWR_ALTERA_AVALON_TIMER_CONTROL (base, 
    11e4:	008001c4 	movi	r2,7
    11e8:	28800135 	stwio	r2,4(r5)
  /* register the interrupt handler, and enable the interrupt */
#ifdef ALT_ENHANCED_INTERRUPT_API_PRESENT
  alt_ic_isr_register(irq_controller_id, irq, alt_avalon_timer_sc_irq, 
                      base, NULL);
#else
  alt_irq_register (irq, base, alt_avalon_timer_sc_irq);
    11ec:	3009883a 	mov	r4,r6
    11f0:	01800034 	movhi	r6,0
    11f4:	31848204 	addi	r6,r6,4616
    11f8:	00008ec0 	call	8ec <alt_irq_register>
#endif  
}
    11fc:	dfc00017 	ldw	ra,0(sp)
    1200:	dec00104 	addi	sp,sp,4
    1204:	f800283a 	ret

00001208 <alt_avalon_timer_sc_irq>:
#ifdef ALT_ENHANCED_INTERRUPT_API_PRESENT
static void alt_avalon_timer_sc_irq (void* base)
#else
static void alt_avalon_timer_sc_irq (void* base, alt_u32 id)
#endif
{
    1208:	defffe04 	addi	sp,sp,-8
    120c:	dfc00115 	stw	ra,4(sp)
    1210:	dc000015 	stw	r16,0(sp)
  alt_irq_context cpu_sr;
  
  /* clear the interrupt */
  IOWR_ALTERA_AVALON_TIMER_STATUS (base, 0);
    1214:	20000035 	stwio	zero,0(r4)
  /* 
   * Dummy read to ensure IRQ is negated before the ISR returns.
   * The control register is read because reading the status
   * register has side-effects per the register map documentation.
   */
  IORD_ALTERA_AVALON_TIMER_CONTROL (base);
    1218:	20800137 	ldwio	r2,4(r4)
static ALT_INLINE alt_irq_context ALT_ALWAYS_INLINE 
       alt_irq_disable_all (void)
{
  alt_irq_context context;

  NIOS2_READ_STATUS (context);
    121c:	0021303a 	rdctl	r16,status

  NIOS2_WRITE_STATUS (context & ~NIOS2_STATUS_PIE_MSK);
    1220:	00bfff84 	movi	r2,-2
    1224:	8084703a 	and	r2,r16,r2
    1228:	1001703a 	wrctl	status,r2
  /* 
   * Notify the system of a clock tick. disable interrupts 
   * during this time to safely support ISR preemption
   */
  cpu_sr = alt_irq_disable_all();
  alt_tick ();
    122c:	0001a9c0 	call	1a9c <alt_tick>
  status &= ~NIOS2_STATUS_PIE_MSK;
  status |= (context & NIOS2_STATUS_PIE_MSK);
  
  NIOS2_WRITE_STATUS (status);
#else
  NIOS2_WRITE_STATUS (context);
    1230:	8001703a 	wrctl	status,r16
  alt_irq_enable_all(cpu_sr);
}
    1234:	dfc00117 	ldw	ra,4(sp)
    1238:	dc000017 	ldw	r16,0(sp)
    123c:	dec00204 	addi	sp,sp,8
    1240:	f800283a 	ret

00001244 <get_DDRAM_addr>:
 **/
unsigned char get_DDRAM_addr(unsigned x_pos, unsigned y_pos)
{
	//assume valid inputs
	unsigned char addr = 0x00000000;
	if (y_pos == 0)
    1244:	2800021e 	bne	r5,zero,1250 <get_DDRAM_addr+0xc>
	{
		addr |= x_pos;
    1248:	2005883a 	mov	r2,r4
    124c:	00000106 	br	1254 <get_DDRAM_addr+0x10>
	}
	else
	{
		addr |= x_pos;
		addr |= 0x00000040;
    1250:	20801014 	ori	r2,r4,64
    1254:	10803fcc 	andi	r2,r2,255
	}
	// b_7 is always 1 for DDRAM address, see datasheet
	return (addr | 0x00000080);
}
    1258:	10802014 	ori	r2,r2,128
    125c:	f800283a 	ret

00001260 <alt_up_character_lcd_string>:
	}
}

void alt_up_character_lcd_string(alt_up_character_lcd_dev *dev, const char *ptr)
{
	while ( *ptr )
    1260:	28c00003 	ldbu	r3,0(r5)
    1264:	18803fcc 	andi	r2,r3,255
    1268:	1080201c 	xori	r2,r2,128
    126c:	10bfe004 	addi	r2,r2,-128
    1270:	10000d26 	beq	r2,zero,12a8 <alt_up_character_lcd_string+0x48>
    1274:	01800044 	movi	r6,1
	{
		IOWR_ALT_UP_CHARACTER_LCD_DATA(dev->base, *(ptr));
    1278:	20800a17 	ldw	r2,40(r4)
    127c:	1185883a 	add	r2,r2,r6
    1280:	18c03fcc 	andi	r3,r3,255
    1284:	18c0201c 	xori	r3,r3,128
    1288:	18ffe004 	addi	r3,r3,-128
    128c:	10c00025 	stbio	r3,0(r2)
		++ptr;
    1290:	298b883a 	add	r5,r5,r6
	}
}

void alt_up_character_lcd_string(alt_up_character_lcd_dev *dev, const char *ptr)
{
	while ( *ptr )
    1294:	28c00003 	ldbu	r3,0(r5)
    1298:	18803fcc 	andi	r2,r3,255
    129c:	1080201c 	xori	r2,r2,128
    12a0:	10bfe004 	addi	r2,r2,-128
    12a4:	103ff41e 	bne	r2,zero,1278 <alt_up_character_lcd_string+0x18>
    12a8:	f800283a 	ret

000012ac <alt_up_character_lcd_write>:
}

void alt_up_character_lcd_write(alt_up_character_lcd_dev *dev, const char *ptr, unsigned int len)
{
	unsigned int i;
	for (i = 0; i < len; i++)
    12ac:	30000926 	beq	r6,zero,12d4 <alt_up_character_lcd_write+0x28>
    12b0:	000f883a 	mov	r7,zero
    12b4:	02000044 	movi	r8,1
	{
		IOWR_ALT_UP_CHARACTER_LCD_DATA(dev->base, *(ptr+i));
    12b8:	20800a17 	ldw	r2,40(r4)
    12bc:	1205883a 	add	r2,r2,r8
    12c0:	3947883a 	add	r3,r7,r5
    12c4:	18c00007 	ldb	r3,0(r3)
    12c8:	10c00025 	stbio	r3,0(r2)
}

void alt_up_character_lcd_write(alt_up_character_lcd_dev *dev, const char *ptr, unsigned int len)
{
	unsigned int i;
	for (i = 0; i < len; i++)
    12cc:	3a0f883a 	add	r7,r7,r8
    12d0:	31fff91e 	bne	r6,r7,12b8 <alt_up_character_lcd_write+0xc>
    12d4:	f800283a 	ret

000012d8 <alt_up_character_lcd_write_fd>:
	}
}

// this function isn't used, and is included for future upgrades
int alt_up_character_lcd_write_fd(alt_fd *fd, const char *ptr, int len)
{
    12d8:	deffff04 	addi	sp,sp,-4
    12dc:	dfc00015 	stw	ra,0(sp)
	alt_up_character_lcd_write( (alt_up_character_lcd_dev *) fd->dev, ptr, (unsigned int) len);
    12e0:	21000017 	ldw	r4,0(r4)
    12e4:	00012ac0 	call	12ac <alt_up_character_lcd_write>
	return 0;
}
    12e8:	0005883a 	mov	r2,zero
    12ec:	dfc00017 	ldw	ra,0(sp)
    12f0:	dec00104 	addi	sp,sp,4
    12f4:	f800283a 	ret

000012f8 <alt_up_character_lcd_init>:
 */
////////////////////////////////////////////////////////////////////////////

void alt_up_character_lcd_init(alt_up_character_lcd_dev *lcd)
{
	IOWR_ALT_UP_CHARACTER_LCD_COMMAND(lcd->base, ALT_UP_CHARACTER_LCD_COMM_CLEAR_DISPLAY);
    12f8:	20c00a17 	ldw	r3,40(r4)
    12fc:	00800044 	movi	r2,1
    1300:	18800025 	stbio	r2,0(r3)
	// register the device 
	// see "Developing Device Drivers for the HAL" in "Nios II Software Developer's Handbook"
}
    1304:	f800283a 	ret

00001308 <alt_up_character_lcd_send_cmd>:
 * @return nothing
 **/
void alt_up_character_lcd_send_cmd(alt_up_character_lcd_dev *lcd, unsigned char cmd)
{
 	// NOTE: We use the term Instruction Register and Control Register interchangeably
	IOWR_ALT_UP_CHARACTER_LCD_COMMAND(lcd->base, cmd);
    1308:	20800a17 	ldw	r2,40(r4)
    130c:	29403fcc 	andi	r5,r5,255
    1310:	11400025 	stbio	r5,0(r2)
}
    1314:	f800283a 	ret

00001318 <alt_up_character_lcd_cursor_blink_on>:
{
	alt_up_character_lcd_send_cmd(lcd, ALT_UP_CHARACTER_LCD_COMM_CURSOR_OFF);
}

void alt_up_character_lcd_cursor_blink_on(alt_up_character_lcd_dev *lcd)
{
    1318:	deffff04 	addi	sp,sp,-4
    131c:	dfc00015 	stw	ra,0(sp)
	alt_up_character_lcd_send_cmd(lcd, ALT_UP_CHARACTER_LCD_COMM_CURSOR_BLINK_ON);
    1320:	014003c4 	movi	r5,15
    1324:	00013080 	call	1308 <alt_up_character_lcd_send_cmd>
}
    1328:	dfc00017 	ldw	ra,0(sp)
    132c:	dec00104 	addi	sp,sp,4
    1330:	f800283a 	ret

00001334 <alt_up_character_lcd_cursor_off>:
	IOWR_ALT_UP_CHARACTER_LCD_DATA(lcd->base, (0x00000002) );
	return 0;
}

void alt_up_character_lcd_cursor_off(alt_up_character_lcd_dev *lcd)
{
    1334:	deffff04 	addi	sp,sp,-4
    1338:	dfc00015 	stw	ra,0(sp)
	alt_up_character_lcd_send_cmd(lcd, ALT_UP_CHARACTER_LCD_COMM_CURSOR_OFF);
    133c:	01400304 	movi	r5,12
    1340:	00013080 	call	1308 <alt_up_character_lcd_send_cmd>
}
    1344:	dfc00017 	ldw	ra,0(sp)
    1348:	dec00104 	addi	sp,sp,4
    134c:	f800283a 	ret

00001350 <alt_up_character_lcd_erase_pos>:
	while (num_offset-- > 0)
		alt_up_character_lcd_send_cmd(lcd, shift_cmd);
}

int alt_up_character_lcd_erase_pos(alt_up_character_lcd_dev *lcd, unsigned x_pos, unsigned y_pos)
{
    1350:	defffd04 	addi	sp,sp,-12
    1354:	dfc00215 	stw	ra,8(sp)
    1358:	dc400115 	stw	r17,4(sp)
    135c:	dc000015 	stw	r16,0(sp)
    1360:	2021883a 	mov	r16,r4
	// boundary check
	if (x_pos > 39 || y_pos > 1 )
    1364:	008009c4 	movi	r2,39
    1368:	11400e36 	bltu	r2,r5,13a4 <alt_up_character_lcd_erase_pos+0x54>
    136c:	04400044 	movi	r17,1
    1370:	89800c36 	bltu	r17,r6,13a4 <alt_up_character_lcd_erase_pos+0x54>
		return -1;

	// get address
	unsigned char addr = get_DDRAM_addr(x_pos, y_pos);
    1374:	2809883a 	mov	r4,r5
    1378:	300b883a 	mov	r5,r6
    137c:	00012440 	call	1244 <get_DDRAM_addr>
    1380:	8009883a 	mov	r4,r16
    1384:	11403fcc 	andi	r5,r2,255
    1388:	00013080 	call	1308 <alt_up_character_lcd_send_cmd>
	// set cursor to dest point
	alt_up_character_lcd_send_cmd(lcd, addr);
	//send an empty char as erase (refer to the Character Generator ROM part of the Datasheet)
	IOWR_ALT_UP_CHARACTER_LCD_DATA(lcd->base, (0x00000002) );
    138c:	80800a17 	ldw	r2,40(r16)
    1390:	1445883a 	add	r2,r2,r17
    1394:	00c00084 	movi	r3,2
    1398:	10c00025 	stbio	r3,0(r2)
    139c:	0005883a 	mov	r2,zero
    13a0:	00000106 	br	13a8 <alt_up_character_lcd_erase_pos+0x58>
	return 0;
    13a4:	00bfffc4 	movi	r2,-1
}
    13a8:	dfc00217 	ldw	ra,8(sp)
    13ac:	dc400117 	ldw	r17,4(sp)
    13b0:	dc000017 	ldw	r16,0(sp)
    13b4:	dec00304 	addi	sp,sp,12
    13b8:	f800283a 	ret

000013bc <alt_up_character_lcd_shift_display>:
	while (num_offset-- > 0)
		alt_up_character_lcd_send_cmd(lcd, shift_cmd);
}

void alt_up_character_lcd_shift_display(alt_up_character_lcd_dev *lcd, int x_right_shift_offset)
{
    13bc:	defffa04 	addi	sp,sp,-24
    13c0:	dfc00515 	stw	ra,20(sp)
    13c4:	dd000415 	stw	r20,16(sp)
    13c8:	dcc00315 	stw	r19,12(sp)
    13cc:	dc800215 	stw	r18,8(sp)
    13d0:	dc400115 	stw	r17,4(sp)
    13d4:	dc000015 	stw	r16,0(sp)
    13d8:	2027883a 	mov	r19,r4
	if (x_right_shift_offset == 0) 
    13dc:	28001326 	beq	r5,zero,142c <alt_up_character_lcd_shift_display+0x70>
		// don't ask me to do nothing 
		return;

	// see shift right or left
	unsigned char shift_cmd = (x_right_shift_offset > 0) ? 
		ALT_UP_CHARACTER_LCD_COMM_DISPLAY_SHIFT_RIGHT : ALT_UP_CHARACTER_LCD_COMM_DISPLAY_SHIFT_LEFT;
    13e0:	0140020e 	bge	zero,r5,13ec <alt_up_character_lcd_shift_display+0x30>
    13e4:	05000704 	movi	r20,28
    13e8:	00000106 	br	13f0 <alt_up_character_lcd_shift_display+0x34>
    13ec:	05000604 	movi	r20,24
	// see how many to shift
	unsigned char num_offset = (x_right_shift_offset > 0) ? x_right_shift_offset : 
		-x_right_shift_offset;
    13f0:	2800010e 	bge	r5,zero,13f8 <alt_up_character_lcd_shift_display+0x3c>
    13f4:	014bc83a 	sub	r5,zero,r5
	// do the shift
	while (num_offset-- > 0)
    13f8:	00bfffc4 	movi	r2,-1
    13fc:	28a1883a 	add	r16,r5,r2
    1400:	80c03fcc 	andi	r3,r16,255
    1404:	10803fcc 	andi	r2,r2,255
    1408:	18800826 	beq	r3,r2,142c <alt_up_character_lcd_shift_display+0x70>
    140c:	04bfffc4 	movi	r18,-1
    1410:	04403fc4 	movi	r17,255
		alt_up_character_lcd_send_cmd(lcd, shift_cmd);
    1414:	9809883a 	mov	r4,r19
    1418:	a1403fcc 	andi	r5,r20,255
    141c:	00013080 	call	1308 <alt_up_character_lcd_send_cmd>
		ALT_UP_CHARACTER_LCD_COMM_DISPLAY_SHIFT_RIGHT : ALT_UP_CHARACTER_LCD_COMM_DISPLAY_SHIFT_LEFT;
	// see how many to shift
	unsigned char num_offset = (x_right_shift_offset > 0) ? x_right_shift_offset : 
		-x_right_shift_offset;
	// do the shift
	while (num_offset-- > 0)
    1420:	84a1883a 	add	r16,r16,r18
    1424:	80803fcc 	andi	r2,r16,255
    1428:	147ffa1e 	bne	r2,r17,1414 <alt_up_character_lcd_shift_display+0x58>
		alt_up_character_lcd_send_cmd(lcd, shift_cmd);
}
    142c:	dfc00517 	ldw	ra,20(sp)
    1430:	dd000417 	ldw	r20,16(sp)
    1434:	dcc00317 	ldw	r19,12(sp)
    1438:	dc800217 	ldw	r18,8(sp)
    143c:	dc400117 	ldw	r17,4(sp)
    1440:	dc000017 	ldw	r16,0(sp)
    1444:	dec00604 	addi	sp,sp,24
    1448:	f800283a 	ret

0000144c <alt_up_character_lcd_shift_cursor>:
	alt_up_character_lcd_send_cmd(lcd, addr);
	return 0;
}

void alt_up_character_lcd_shift_cursor(alt_up_character_lcd_dev *lcd, int x_right_shift_offset)
{
    144c:	defffa04 	addi	sp,sp,-24
    1450:	dfc00515 	stw	ra,20(sp)
    1454:	dd000415 	stw	r20,16(sp)
    1458:	dcc00315 	stw	r19,12(sp)
    145c:	dc800215 	stw	r18,8(sp)
    1460:	dc400115 	stw	r17,4(sp)
    1464:	dc000015 	stw	r16,0(sp)
    1468:	2027883a 	mov	r19,r4
	if (x_right_shift_offset == 0) 
    146c:	28001326 	beq	r5,zero,14bc <alt_up_character_lcd_shift_cursor+0x70>
		// don't ask me to do nothing 
		return;

	// see shift right or left
	unsigned char shift_cmd = (x_right_shift_offset > 0) ? 
		ALT_UP_CHARACTER_LCD_COMM_CURSOR_SHIFT_RIGHT : ALT_UP_CHARACTER_LCD_COMM_CURSOR_SHIFT_LEFT;
    1470:	0140020e 	bge	zero,r5,147c <alt_up_character_lcd_shift_cursor+0x30>
    1474:	05000504 	movi	r20,20
    1478:	00000106 	br	1480 <alt_up_character_lcd_shift_cursor+0x34>
    147c:	05000404 	movi	r20,16
	// see how many to shift
	unsigned char num_offset = (x_right_shift_offset > 0) ? x_right_shift_offset : 
		-x_right_shift_offset;
    1480:	2800010e 	bge	r5,zero,1488 <alt_up_character_lcd_shift_cursor+0x3c>
    1484:	014bc83a 	sub	r5,zero,r5
	// do the shift
	while (num_offset-- > 0)
    1488:	00bfffc4 	movi	r2,-1
    148c:	28a1883a 	add	r16,r5,r2
    1490:	80c03fcc 	andi	r3,r16,255
    1494:	10803fcc 	andi	r2,r2,255
    1498:	18800826 	beq	r3,r2,14bc <alt_up_character_lcd_shift_cursor+0x70>
    149c:	04bfffc4 	movi	r18,-1
    14a0:	04403fc4 	movi	r17,255
		alt_up_character_lcd_send_cmd(lcd, shift_cmd);
    14a4:	9809883a 	mov	r4,r19
    14a8:	a1403fcc 	andi	r5,r20,255
    14ac:	00013080 	call	1308 <alt_up_character_lcd_send_cmd>
		ALT_UP_CHARACTER_LCD_COMM_CURSOR_SHIFT_RIGHT : ALT_UP_CHARACTER_LCD_COMM_CURSOR_SHIFT_LEFT;
	// see how many to shift
	unsigned char num_offset = (x_right_shift_offset > 0) ? x_right_shift_offset : 
		-x_right_shift_offset;
	// do the shift
	while (num_offset-- > 0)
    14b0:	84a1883a 	add	r16,r16,r18
    14b4:	80803fcc 	andi	r2,r16,255
    14b8:	147ffa1e 	bne	r2,r17,14a4 <alt_up_character_lcd_shift_cursor+0x58>
		alt_up_character_lcd_send_cmd(lcd, shift_cmd);
}
    14bc:	dfc00517 	ldw	ra,20(sp)
    14c0:	dd000417 	ldw	r20,16(sp)
    14c4:	dcc00317 	ldw	r19,12(sp)
    14c8:	dc800217 	ldw	r18,8(sp)
    14cc:	dc400117 	ldw	r17,4(sp)
    14d0:	dc000017 	ldw	r16,0(sp)
    14d4:	dec00604 	addi	sp,sp,24
    14d8:	f800283a 	ret

000014dc <alt_up_character_lcd_set_cursor_pos>:
	return 0;
}

int alt_up_character_lcd_set_cursor_pos(alt_up_character_lcd_dev *lcd, unsigned x_pos, 
	 unsigned y_pos)
{
    14dc:	defffe04 	addi	sp,sp,-8
    14e0:	dfc00115 	stw	ra,4(sp)
    14e4:	dc000015 	stw	r16,0(sp)
    14e8:	2021883a 	mov	r16,r4
	//boundary check
	if (x_pos > 39 || y_pos > 1 )
    14ec:	008009c4 	movi	r2,39
    14f0:	11400a36 	bltu	r2,r5,151c <alt_up_character_lcd_set_cursor_pos+0x40>
    14f4:	00800044 	movi	r2,1
    14f8:	11800836 	bltu	r2,r6,151c <alt_up_character_lcd_set_cursor_pos+0x40>
		// invalid argument
		return -1;
	// calculate address
	unsigned char addr = get_DDRAM_addr(x_pos, y_pos);
    14fc:	2809883a 	mov	r4,r5
    1500:	300b883a 	mov	r5,r6
    1504:	00012440 	call	1244 <get_DDRAM_addr>
    1508:	8009883a 	mov	r4,r16
    150c:	11403fcc 	andi	r5,r2,255
    1510:	00013080 	call	1308 <alt_up_character_lcd_send_cmd>
    1514:	0005883a 	mov	r2,zero
    1518:	00000106 	br	1520 <alt_up_character_lcd_set_cursor_pos+0x44>
	// set the cursor
	alt_up_character_lcd_send_cmd(lcd, addr);
	return 0;
    151c:	00bfffc4 	movi	r2,-1
}
    1520:	dfc00117 	ldw	ra,4(sp)
    1524:	dc000017 	ldw	r16,0(sp)
    1528:	dec00204 	addi	sp,sp,8
    152c:	f800283a 	ret

00001530 <alt_up_character_lcd_open_dev>:
	// register the device 
	// see "Developing Device Drivers for the HAL" in "Nios II Software Developer's Handbook"
}

alt_up_character_lcd_dev* alt_up_character_lcd_open_dev(const char* name)
{
    1530:	deffff04 	addi	sp,sp,-4
    1534:	dfc00015 	stw	ra,0(sp)
  // find the device from the device list 
  // (see altera_hal/HAL/inc/priv/alt_file.h 
  // and altera_hal/HAL/src/alt_find_dev.c 
  // for details)
  alt_up_character_lcd_dev *dev = (alt_up_character_lcd_dev*)alt_find_dev(name, &alt_dev_list);
    1538:	01400034 	movhi	r5,0
    153c:	294dd004 	addi	r5,r5,14144
    1540:	000173c0 	call	173c <alt_find_dev>

  return dev;
}
    1544:	dfc00017 	ldw	ra,0(sp)
    1548:	dec00104 	addi	sp,sp,4
    154c:	f800283a 	ret

00001550 <alt_alarm_start>:
                     void* context)
{
  alt_irq_context irq_context;
  alt_u32 current_nticks = 0;
  
  if (alt_ticks_per_second ())
    1550:	00800034 	movhi	r2,0
    1554:	1093ab04 	addi	r2,r2,20140
    1558:	10800017 	ldw	r2,0(r2)
    155c:	1000021e 	bne	r2,zero,1568 <alt_alarm_start+0x18>
    1560:	00bfde84 	movi	r2,-134
    1564:	f800283a 	ret
  {
    if (alarm)
    1568:	2000021e 	bne	r4,zero,1574 <alt_alarm_start+0x24>
    156c:	00bffa84 	movi	r2,-22
    1570:	f800283a 	ret
    {
      alarm->callback = callback;
    1574:	21800315 	stw	r6,12(r4)
      alarm->context  = context;
    1578:	21c00515 	stw	r7,20(r4)
static ALT_INLINE alt_irq_context ALT_ALWAYS_INLINE 
       alt_irq_disable_all (void)
{
  alt_irq_context context;

  NIOS2_READ_STATUS (context);
    157c:	000f303a 	rdctl	r7,status

  NIOS2_WRITE_STATUS (context & ~NIOS2_STATUS_PIE_MSK);
    1580:	00bfff84 	movi	r2,-2
    1584:	3884703a 	and	r2,r7,r2
    1588:	1001703a 	wrctl	status,r2
 * alt_nticks() returns the elapsed number of system clock ticks since reset.
 */

static ALT_INLINE alt_u32 ALT_ALWAYS_INLINE alt_nticks (void)
{
  return _alt_nticks;
    158c:	00800034 	movhi	r2,0
    1590:	1093ac04 	addi	r2,r2,20144
    1594:	10c00017 	ldw	r3,0(r2)
 
      irq_context = alt_irq_disable_all ();
      
      current_nticks = alt_nticks();
      
      alarm->time = nticks + current_nticks + 1; 
    1598:	01800044 	movi	r6,1
    159c:	1985883a 	add	r2,r3,r6
    15a0:	2885883a 	add	r2,r5,r2
    15a4:	20800215 	stw	r2,8(r4)
      /* 
       * If the desired alarm time causes a roll-over, set the rollover
       * flag. This will prevent the subsequent tick event from causing
       * an alarm too early.
       */
      if(alarm->time < current_nticks)
    15a8:	10c0022e 	bgeu	r2,r3,15b4 <alt_alarm_start+0x64>
      {
        alarm->rollover = 1;
    15ac:	21800405 	stb	r6,16(r4)
    15b0:	00000106 	br	15b8 <alt_alarm_start+0x68>
      }
      else
      {
        alarm->rollover = 0;
    15b4:	20000405 	stb	zero,16(r4)
 */

static ALT_INLINE void ALT_ALWAYS_INLINE alt_llist_insert(alt_llist* list, 
                alt_llist* entry)
{
  entry->previous = list;
    15b8:	00800034 	movhi	r2,0
    15bc:	108dd404 	addi	r2,r2,14160
    15c0:	20800115 	stw	r2,4(r4)
  entry->next     = list->next;
    15c4:	10c00017 	ldw	r3,0(r2)
    15c8:	20c00015 	stw	r3,0(r4)

  list->next->previous = entry;
    15cc:	10c00017 	ldw	r3,0(r2)
    15d0:	19000115 	stw	r4,4(r3)
  list->next           = entry;
    15d4:	11000015 	stw	r4,0(r2)
  status &= ~NIOS2_STATUS_PIE_MSK;
  status |= (context & NIOS2_STATUS_PIE_MSK);
  
  NIOS2_WRITE_STATUS (status);
#else
  NIOS2_WRITE_STATUS (context);
    15d8:	3801703a 	wrctl	status,r7
    15dc:	0005883a 	mov	r2,zero
  }
  else
  {
    return -ENOTSUP;
  }
}
    15e0:	f800283a 	ret

000015e4 <close>:
 *
 * ALT_CLOSE is mapped onto the close() system call in alt_syscall.h
 */
 
int ALT_CLOSE (int fildes)
{
    15e4:	defffd04 	addi	sp,sp,-12
    15e8:	dfc00215 	stw	ra,8(sp)
    15ec:	dc400115 	stw	r17,4(sp)
    15f0:	dc000015 	stw	r16,0(sp)
    15f4:	2021883a 	mov	r16,r4
   * A common error case is that when the file descriptor was created, the call
   * to open() failed resulting in a negative file descriptor. This is trapped
   * below so that we don't try and process an invalid file descriptor.
   */

  fd = (fildes < 0) ? NULL : &alt_fd_list[fildes];
    15f8:	20001c16 	blt	r4,zero,166c <close+0x88>
    15fc:	20c00324 	muli	r3,r4,12
    1600:	00800034 	movhi	r2,0
    1604:	108c6d04 	addi	r2,r2,12724
    1608:	1889883a 	add	r4,r3,r2

  if (fd)
    160c:	20001726 	beq	r4,zero,166c <close+0x88>
    /*
     * If the associated file system/device has a close function, call it so 
     * that any necessary cleanup code can run.
     */

    rval = (fd->dev->close) ? fd->dev->close(fd) : 0;
    1610:	20800017 	ldw	r2,0(r4)
    1614:	10800417 	ldw	r2,16(r2)
    1618:	10002126 	beq	r2,zero,16a0 <close+0xbc>
    161c:	103ee83a 	callr	r2
    1620:	1023883a 	mov	r17,r2

    /* Free the file descriptor structure and return. */

    alt_release_fd (fildes);
    1624:	8009883a 	mov	r4,r16
    1628:	0001a440 	call	1a44 <alt_release_fd>
    if (rval < 0)
    162c:	88000216 	blt	r17,zero,1638 <close+0x54>
    1630:	0005883a 	mov	r2,zero
    1634:	00001d06 	br	16ac <close+0xc8>

extern int errno;

static ALT_INLINE int* alt_get_errno(void)
{
  return ((alt_errno) ? alt_errno() : &errno);
    1638:	00800034 	movhi	r2,0
    163c:	108dd304 	addi	r2,r2,14156
    1640:	10800017 	ldw	r2,0(r2)
    1644:	1000031e 	bne	r2,zero,1654 <close+0x70>
    1648:	00c00034 	movhi	r3,0
    164c:	18d3ad04 	addi	r3,r3,20148
    1650:	00000206 	br	165c <close+0x78>
    1654:	103ee83a 	callr	r2
    1658:	1007883a 	mov	r3,r2
    {
      ALT_ERRNO = -rval;
    165c:	0445c83a 	sub	r2,zero,r17
    1660:	18800015 	stw	r2,0(r3)
    1664:	00bfffc4 	movi	r2,-1
    1668:	00001006 	br	16ac <close+0xc8>
    166c:	00800034 	movhi	r2,0
    1670:	108dd304 	addi	r2,r2,14156
    1674:	10800017 	ldw	r2,0(r2)
    1678:	1000031e 	bne	r2,zero,1688 <close+0xa4>
    167c:	00c00034 	movhi	r3,0
    1680:	18d3ad04 	addi	r3,r3,20148
    1684:	00000206 	br	1690 <close+0xac>
    1688:	103ee83a 	callr	r2
    168c:	1007883a 	mov	r3,r2
    }
    return 0;
  }
  else
  {
    ALT_ERRNO = EBADFD;
    1690:	00801444 	movi	r2,81
    1694:	18800015 	stw	r2,0(r3)
    1698:	00bfffc4 	movi	r2,-1
    169c:	00000306 	br	16ac <close+0xc8>

    rval = (fd->dev->close) ? fd->dev->close(fd) : 0;

    /* Free the file descriptor structure and return. */

    alt_release_fd (fildes);
    16a0:	8009883a 	mov	r4,r16
    16a4:	0001a440 	call	1a44 <alt_release_fd>
    16a8:	0005883a 	mov	r2,zero
  else
  {
    ALT_ERRNO = EBADFD;
    return -1;
  }
}
    16ac:	dfc00217 	ldw	ra,8(sp)
    16b0:	dc400117 	ldw	r17,4(sp)
    16b4:	dc000017 	ldw	r16,0(sp)
    16b8:	dec00304 	addi	sp,sp,12
    16bc:	f800283a 	ret

000016c0 <alt_dcache_flush_all>:
  for (i = (char*) 0; i < (char*) NIOS2_DCACHE_SIZE; i+= NIOS2_DCACHE_LINE_SIZE)
  { 
    __asm__ volatile ("flushd (%0)" :: "r" (i));
  }
#endif /* NIOS2_DCACHE_SIZE > 0 */
}
    16c0:	f800283a 	ret

000016c4 <alt_dev_null_write>:
 */

static int alt_dev_null_write (alt_fd* fd, const char* ptr, int len)
{
  return len;
}
    16c4:	3005883a 	mov	r2,r6
    16c8:	f800283a 	ret

000016cc <alt_dev_llist_insert>:
/*
 *
 */

int alt_dev_llist_insert (alt_dev_llist* dev, alt_llist* list)
{
    16cc:	deffff04 	addi	sp,sp,-4
    16d0:	dfc00015 	stw	ra,0(sp)
  /*
   * check that the device exists, and that it has a valid name.
   */

  if (!dev || !dev->name)
    16d4:	20000226 	beq	r4,zero,16e0 <alt_dev_llist_insert+0x14>
    16d8:	20800217 	ldw	r2,8(r4)
    16dc:	10000d1e 	bne	r2,zero,1714 <alt_dev_llist_insert+0x48>
    16e0:	00800034 	movhi	r2,0
    16e4:	108dd304 	addi	r2,r2,14156
    16e8:	10800017 	ldw	r2,0(r2)
    16ec:	1000031e 	bne	r2,zero,16fc <alt_dev_llist_insert+0x30>
    16f0:	00c00034 	movhi	r3,0
    16f4:	18d3ad04 	addi	r3,r3,20148
    16f8:	00000206 	br	1704 <alt_dev_llist_insert+0x38>
    16fc:	103ee83a 	callr	r2
    1700:	1007883a 	mov	r3,r2
  {
    ALT_ERRNO = EINVAL;
    1704:	00800584 	movi	r2,22
    1708:	18800015 	stw	r2,0(r3)
    170c:	00bffa84 	movi	r2,-22
    1710:	00000706 	br	1730 <alt_dev_llist_insert+0x64>
 */

static ALT_INLINE void ALT_ALWAYS_INLINE alt_llist_insert(alt_llist* list, 
                alt_llist* entry)
{
  entry->previous = list;
    1714:	21400115 	stw	r5,4(r4)
  entry->next     = list->next;
    1718:	28800017 	ldw	r2,0(r5)
    171c:	20800015 	stw	r2,0(r4)

  list->next->previous = entry;
    1720:	28800017 	ldw	r2,0(r5)
    1724:	11000115 	stw	r4,4(r2)
  list->next           = entry;
    1728:	29000015 	stw	r4,0(r5)
    172c:	0005883a 	mov	r2,zero
   */
  
  alt_llist_insert(list, &dev->llist);

  return 0;  
}
    1730:	dfc00017 	ldw	ra,0(sp)
    1734:	dec00104 	addi	sp,sp,4
    1738:	f800283a 	ret

0000173c <alt_find_dev>:
 * "name" must be an exact match for the devices registered name for a match to
 * be found.
 */
 
alt_dev* alt_find_dev(const char* name, alt_llist* llist)
{
    173c:	defffb04 	addi	sp,sp,-20
    1740:	dfc00415 	stw	ra,16(sp)
    1744:	dcc00315 	stw	r19,12(sp)
    1748:	dc800215 	stw	r18,8(sp)
    174c:	dc400115 	stw	r17,4(sp)
    1750:	dc000015 	stw	r16,0(sp)
    1754:	2027883a 	mov	r19,r4
    1758:	2821883a 	mov	r16,r5
  alt_dev* next = (alt_dev*) llist->next;
    175c:	2c400017 	ldw	r17,0(r5)
  alt_32 len;

  len  = strlen(name) + 1;
    1760:	0001d600 	call	1d60 <strlen>
    1764:	14800044 	addi	r18,r2,1
  /*
   * Check each list entry in turn, until a match is found, or we reach the
   * end of the list (i.e. next winds up pointing back to the list head).
   */ 

  while (next != (alt_dev*) llist)
    1768:	8c000726 	beq	r17,r16,1788 <alt_find_dev+0x4c>
    /* 
     * memcmp() is used here rather than strcmp() in order to reduce the size
     * of the executable.
     */

    if (!memcmp (next->name, name, len))
    176c:	89000217 	ldw	r4,8(r17)
    1770:	980b883a 	mov	r5,r19
    1774:	900d883a 	mov	r6,r18
    1778:	0001cec0 	call	1cec <memcmp>
    177c:	10000326 	beq	r2,zero,178c <alt_find_dev+0x50>
    {
      /* match found */

      return next;
    }
    next = (alt_dev*) next->llist.next;
    1780:	8c400017 	ldw	r17,0(r17)
  /*
   * Check each list entry in turn, until a match is found, or we reach the
   * end of the list (i.e. next winds up pointing back to the list head).
   */ 

  while (next != (alt_dev*) llist)
    1784:	847ff91e 	bne	r16,r17,176c <alt_find_dev+0x30>
    1788:	0023883a 	mov	r17,zero
  }
  
  /* No match found */
  
  return NULL;
}
    178c:	8805883a 	mov	r2,r17
    1790:	dfc00417 	ldw	ra,16(sp)
    1794:	dcc00317 	ldw	r19,12(sp)
    1798:	dc800217 	ldw	r18,8(sp)
    179c:	dc400117 	ldw	r17,4(sp)
    17a0:	dc000017 	ldw	r16,0(sp)
    17a4:	dec00504 	addi	sp,sp,20
    17a8:	f800283a 	ret

000017ac <alt_icache_flush_all>:
/*
 * alt_icache_flush_all() is called to flush the entire instruction cache.
 */

void alt_icache_flush_all (void)
{
    17ac:	deffff04 	addi	sp,sp,-4
    17b0:	dfc00015 	stw	ra,0(sp)
#if NIOS2_ICACHE_SIZE > 0
  alt_icache_flush (0, NIOS2_ICACHE_SIZE);
    17b4:	0009883a 	mov	r4,zero
    17b8:	01440004 	movi	r5,4096
    17bc:	0001c780 	call	1c78 <alt_icache_flush>
#endif
}
    17c0:	dfc00017 	ldw	ra,0(sp)
    17c4:	dec00104 	addi	sp,sp,4
    17c8:	f800283a 	ret

000017cc <alt_open_fd>:
 * If the device can not be succesfully opened, then the input file descriptor
 * remains unchanged.
 */

static void alt_open_fd(alt_fd* fd, const char* name, int flags, int mode)
{
    17cc:	defffe04 	addi	sp,sp,-8
    17d0:	dfc00115 	stw	ra,4(sp)
    17d4:	dc000015 	stw	r16,0(sp)
    17d8:	2021883a 	mov	r16,r4
  int old;

  old = open (name, flags, mode);
    17dc:	2809883a 	mov	r4,r5
    17e0:	300b883a 	mov	r5,r6
    17e4:	380d883a 	mov	r6,r7
    17e8:	00018c80 	call	18c8 <open>
    17ec:	1009883a 	mov	r4,r2

  if (old >= 0)
    17f0:	10000b16 	blt	r2,zero,1820 <alt_open_fd+0x54>
  {
    fd->dev      = alt_fd_list[old].dev;
    17f4:	10c00324 	muli	r3,r2,12
    17f8:	00800034 	movhi	r2,0
    17fc:	108c6d04 	addi	r2,r2,12724
    1800:	1887883a 	add	r3,r3,r2
    1804:	18800017 	ldw	r2,0(r3)
    1808:	80800015 	stw	r2,0(r16)
    fd->priv     = alt_fd_list[old].priv;
    180c:	18800117 	ldw	r2,4(r3)
    1810:	80800115 	stw	r2,4(r16)
    fd->fd_flags = alt_fd_list[old].fd_flags;
    1814:	18800217 	ldw	r2,8(r3)
    1818:	80800215 	stw	r2,8(r16)

    alt_release_fd (old);
    181c:	0001a440 	call	1a44 <alt_release_fd>
  }
} 
    1820:	dfc00117 	ldw	ra,4(sp)
    1824:	dc000017 	ldw	r16,0(sp)
    1828:	dec00204 	addi	sp,sp,8
    182c:	f800283a 	ret

00001830 <alt_io_redirect>:
 */
 
void alt_io_redirect(const char* stdout_dev, 
                     const char* stdin_dev, 
                     const char* stderr_dev)
{
    1830:	defffa04 	addi	sp,sp,-24
    1834:	dfc00515 	stw	ra,20(sp)
    1838:	dd000415 	stw	r20,16(sp)
    183c:	dcc00315 	stw	r19,12(sp)
    1840:	dc800215 	stw	r18,8(sp)
    1844:	dc400115 	stw	r17,4(sp)
    1848:	dc000015 	stw	r16,0(sp)
    184c:	2005883a 	mov	r2,r4
    1850:	2827883a 	mov	r19,r5
    1854:	3029883a 	mov	r20,r6
  /* Redirect the channels */

  alt_open_fd (&alt_fd_list[STDOUT_FILENO], stdout_dev, O_WRONLY, 0777);
    1858:	04000034 	movhi	r16,0
    185c:	840c7004 	addi	r16,r16,12736
    1860:	04800044 	movi	r18,1
    1864:	04407fc4 	movi	r17,511
    1868:	8009883a 	mov	r4,r16
    186c:	100b883a 	mov	r5,r2
    1870:	900d883a 	mov	r6,r18
    1874:	880f883a 	mov	r7,r17
    1878:	00017cc0 	call	17cc <alt_open_fd>
  alt_open_fd (&alt_fd_list[STDIN_FILENO], stdin_dev, O_RDONLY, 0777);
    187c:	843ffd04 	addi	r16,r16,-12
    1880:	8009883a 	mov	r4,r16
    1884:	980b883a 	mov	r5,r19
    1888:	000d883a 	mov	r6,zero
    188c:	880f883a 	mov	r7,r17
    1890:	00017cc0 	call	17cc <alt_open_fd>
  alt_open_fd (&alt_fd_list[STDERR_FILENO], stderr_dev, O_WRONLY, 0777);
    1894:	81000604 	addi	r4,r16,24
    1898:	a00b883a 	mov	r5,r20
    189c:	900d883a 	mov	r6,r18
    18a0:	880f883a 	mov	r7,r17
    18a4:	00017cc0 	call	17cc <alt_open_fd>
}  
    18a8:	dfc00517 	ldw	ra,20(sp)
    18ac:	dd000417 	ldw	r20,16(sp)
    18b0:	dcc00317 	ldw	r19,12(sp)
    18b4:	dc800217 	ldw	r18,8(sp)
    18b8:	dc400117 	ldw	r17,4(sp)
    18bc:	dc000017 	ldw	r16,0(sp)
    18c0:	dec00604 	addi	sp,sp,24
    18c4:	f800283a 	ret

000018c8 <open>:
 *
 * ALT_OPEN is mapped onto the open() system call in alt_syscall.h
 */
 
int ALT_OPEN (const char* file, int flags, int mode)
{ 
    18c8:	defff904 	addi	sp,sp,-28
    18cc:	dfc00615 	stw	ra,24(sp)
    18d0:	dd400515 	stw	r21,20(sp)
    18d4:	dd000415 	stw	r20,16(sp)
    18d8:	dcc00315 	stw	r19,12(sp)
    18dc:	dc800215 	stw	r18,8(sp)
    18e0:	dc400115 	stw	r17,4(sp)
    18e4:	dc000015 	stw	r16,0(sp)
    18e8:	2029883a 	mov	r20,r4
    18ec:	2827883a 	mov	r19,r5
    18f0:	302b883a 	mov	r21,r6
  /* 
   * Check the device list, to see if a device with a matching name is 
   * registered.
   */
  
  if (!(dev = alt_find_dev (file, &alt_dev_list)))
    18f4:	01400034 	movhi	r5,0
    18f8:	294dd004 	addi	r5,r5,14144
    18fc:	000173c0 	call	173c <alt_find_dev>
    1900:	1021883a 	mov	r16,r2
    1904:	10000226 	beq	r2,zero,1910 <open+0x48>
    1908:	0025883a 	mov	r18,zero
    190c:	00000a06 	br	1938 <open+0x70>
  {
    /* No matching device, so try the filesystem list */

    dev   = alt_find_file (file);
    1910:	a009883a 	mov	r4,r20
    1914:	0001b500 	call	1b50 <alt_find_file>
    1918:	1021883a 	mov	r16,r2

  /* 
   * If a matching device or filesystem is found, allocate a file descriptor. 
   */

  if (dev)
    191c:	1000051e 	bne	r2,zero,1934 <open+0x6c>
    1920:	047fffc4 	movi	r17,-1
    1924:	043ffb44 	movi	r16,-19
    1928:	00002b06 	br	19d8 <open+0x110>
   * for exclusive access. If a match is found, generate an error.
   */

  for (i = 0; i <= alt_max_fd; i++)
  {
    if ((alt_fd_list[i].dev == fd->dev) &&
    192c:	043ffcc4 	movi	r16,-13
    1930:	00002906 	br	19d8 <open+0x110>

  /* 
   * If a matching device or filesystem is found, allocate a file descriptor. 
   */

  if (dev)
    1934:	04800044 	movi	r18,1
  {
    if ((index = alt_get_fd (dev)) < 0)
    1938:	8009883a 	mov	r4,r16
    193c:	0001c0c0 	call	1c0c <alt_get_fd>
    1940:	1023883a 	mov	r17,r2
    1944:	10003316 	blt	r2,zero,1a14 <open+0x14c>
    {
      status = index;
    }
    else
    {
      fd = &alt_fd_list[index];
    1948:	10800324 	muli	r2,r2,12
    194c:	02000034 	movhi	r8,0
    1950:	420c6d04 	addi	r8,r8,12724
    1954:	1209883a 	add	r4,r2,r8
      fd->fd_flags = (flags & ~ALT_FD_FLAGS_MASK);
    1958:	00900034 	movhi	r2,16384
    195c:	10bfffc4 	addi	r2,r2,-1
    1960:	9886703a 	and	r3,r19,r2
    1964:	20c00215 	stw	r3,8(r4)
      
      /* If this is a device, ensure it isn't already locked */

      if (isafs || ((status = alt_file_locked (fd)) >= 0))
    1968:	9004c03a 	cmpne	r2,r18,zero
    196c:	1000121e 	bne	r2,zero,19b8 <open+0xf0>

  /*
   * Mark the file descriptor as belonging to a device.
   */

  fd->fd_flags |= ALT_FD_DEV;
    1970:	18900034 	orhi	r2,r3,16384
    1974:	20800215 	stw	r2,8(r4)
  /*
   * Loop through all current file descriptors searching for one that's locked
   * for exclusive access. If a match is found, generate an error.
   */

  for (i = 0; i <= alt_max_fd; i++)
    1978:	00800034 	movhi	r2,0
    197c:	108dd204 	addi	r2,r2,14152
    1980:	11c00017 	ldw	r7,0(r2)
  {
    if ((alt_fd_list[i].dev == fd->dev) &&
    1984:	21800017 	ldw	r6,0(r4)
    1988:	000b883a 	mov	r5,zero
    198c:	4007883a 	mov	r3,r8
    1990:	02400044 	movi	r9,1
    1994:	02000304 	movi	r8,12
    1998:	18800017 	ldw	r2,0(r3)
    199c:	1180031e 	bne	r2,r6,19ac <open+0xe4>
    19a0:	18800217 	ldw	r2,8(r3)
    19a4:	1000010e 	bge	r2,zero,19ac <open+0xe4>
    19a8:	193fe01e 	bne	r3,r4,192c <open+0x64>
  /*
   * Loop through all current file descriptors searching for one that's locked
   * for exclusive access. If a match is found, generate an error.
   */

  for (i = 0; i <= alt_max_fd; i++)
    19ac:	2a4b883a 	add	r5,r5,r9
    19b0:	1a07883a 	add	r3,r3,r8
    19b4:	397ff82e 	bgeu	r7,r5,1998 <open+0xd0>
        /* 
         * If the device or filesystem provides an open() callback function,
         * call it now to perform any device/filesystem specific operations.
         */
    
        status = (dev->open) ? dev->open(fd, file, flags, mode): 0;
    19b8:	80800317 	ldw	r2,12(r16)
    19bc:	10001726 	beq	r2,zero,1a1c <open+0x154>
    19c0:	a00b883a 	mov	r5,r20
    19c4:	980d883a 	mov	r6,r19
    19c8:	a80f883a 	mov	r7,r21
    19cc:	103ee83a 	callr	r2
    19d0:	1021883a 	mov	r16,r2
    status = -ENODEV;
  }

  /* Allocation failed, so clean up and return an error */ 

  if (status < 0)
    19d4:	1000110e 	bge	r2,zero,1a1c <open+0x154>
  {
    alt_release_fd (index);  
    19d8:	8809883a 	mov	r4,r17
    19dc:	0001a440 	call	1a44 <alt_release_fd>
    19e0:	00800034 	movhi	r2,0
    19e4:	108dd304 	addi	r2,r2,14156
    19e8:	10800017 	ldw	r2,0(r2)
    19ec:	1000031e 	bne	r2,zero,19fc <open+0x134>
    19f0:	00c00034 	movhi	r3,0
    19f4:	18d3ad04 	addi	r3,r3,20148
    19f8:	00000206 	br	1a04 <open+0x13c>
    19fc:	103ee83a 	callr	r2
    1a00:	1007883a 	mov	r3,r2
    ALT_ERRNO = -status;
    1a04:	0405c83a 	sub	r2,zero,r16
    1a08:	18800015 	stw	r2,0(r3)
    1a0c:	047fffc4 	movi	r17,-1
    1a10:	00000206 	br	1a1c <open+0x154>
    1a14:	1021883a 	mov	r16,r2
    1a18:	003fef06 	br	19d8 <open+0x110>
  }
  
  /* return the reference upon success */

  return index;
}
    1a1c:	8805883a 	mov	r2,r17
    1a20:	dfc00617 	ldw	ra,24(sp)
    1a24:	dd400517 	ldw	r21,20(sp)
    1a28:	dd000417 	ldw	r20,16(sp)
    1a2c:	dcc00317 	ldw	r19,12(sp)
    1a30:	dc800217 	ldw	r18,8(sp)
    1a34:	dc400117 	ldw	r17,4(sp)
    1a38:	dc000017 	ldw	r16,0(sp)
    1a3c:	dec00704 	addi	sp,sp,28
    1a40:	f800283a 	ret

00001a44 <alt_release_fd>:
 * error cannont be released backed to the pool. They are always reserved.
 */

void alt_release_fd (int fd)
{
  if (fd > 2)
    1a44:	00800084 	movi	r2,2
    1a48:	1100060e 	bge	r2,r4,1a64 <alt_release_fd+0x20>
  {
    alt_fd_list[fd].fd_flags = 0;
    1a4c:	20800324 	muli	r2,r4,12
    1a50:	00c00034 	movhi	r3,0
    1a54:	18cc6d04 	addi	r3,r3,12724
    1a58:	10c5883a 	add	r2,r2,r3
    1a5c:	10000215 	stw	zero,8(r2)
    alt_fd_list[fd].dev      = 0;
    1a60:	10000015 	stw	zero,0(r2)
    1a64:	f800283a 	ret

00001a68 <alt_alarm_stop>:
static ALT_INLINE alt_irq_context ALT_ALWAYS_INLINE 
       alt_irq_disable_all (void)
{
  alt_irq_context context;

  NIOS2_READ_STATUS (context);
    1a68:	000b303a 	rdctl	r5,status

  NIOS2_WRITE_STATUS (context & ~NIOS2_STATUS_PIE_MSK);
    1a6c:	00bfff84 	movi	r2,-2
    1a70:	2884703a 	and	r2,r5,r2
    1a74:	1001703a 	wrctl	status,r2
 * input argument is the element to remove.
 */
     
static ALT_INLINE void ALT_ALWAYS_INLINE alt_llist_remove(alt_llist* entry)
{
  entry->next->previous = entry->previous;
    1a78:	20c00017 	ldw	r3,0(r4)
    1a7c:	20800117 	ldw	r2,4(r4)
    1a80:	18800115 	stw	r2,4(r3)
  entry->previous->next = entry->next;
    1a84:	20800117 	ldw	r2,4(r4)
    1a88:	10c00015 	stw	r3,0(r2)
  /* 
   * Set the entry to point to itself, so that any further calls to
   * alt_llist_remove() are harmless.
   */

  entry->previous = entry;
    1a8c:	21000115 	stw	r4,4(r4)
  entry->next     = entry;
    1a90:	21000015 	stw	r4,0(r4)
  status &= ~NIOS2_STATUS_PIE_MSK;
  status |= (context & NIOS2_STATUS_PIE_MSK);
  
  NIOS2_WRITE_STATUS (status);
#else
  NIOS2_WRITE_STATUS (context);
    1a94:	2801703a 	wrctl	status,r5
  alt_irq_context irq_context;

  irq_context = alt_irq_disable_all();
  alt_llist_remove (&alarm->llist);
  alt_irq_enable_all (irq_context);
}
    1a98:	f800283a 	ret

00001a9c <alt_tick>:
 * 
 * alt_tick() is expected to run at interrupt level.
 */

void alt_tick (void)
{
    1a9c:	defffd04 	addi	sp,sp,-12
    1aa0:	dfc00215 	stw	ra,8(sp)
    1aa4:	dc400115 	stw	r17,4(sp)
    1aa8:	dc000015 	stw	r16,0(sp)
  alt_alarm* next;
  alt_alarm* alarm = (alt_alarm*) alt_alarm_list.next;
    1aac:	d4200717 	ldw	r16,-32740(gp)

  alt_u32    next_callback;

  /* update the tick counter */

  _alt_nticks++;
    1ab0:	d0a5df17 	ldw	r2,-26756(gp)
    1ab4:	10800044 	addi	r2,r2,1
    1ab8:	d0a5df15 	stw	r2,-26756(gp)
    1abc:	00001b06 	br	1b2c <alt_tick+0x90>

  /* process the registered callbacks */

  while (alarm != (alt_alarm*) &alt_alarm_list)
  {
    next = (alt_alarm*) alarm->llist.next;
    1ac0:	84400017 	ldw	r17,0(r16)
    /* 
     * Upon the tick-counter rolling over it is safe to clear the 
     * roll-over flag; once the flag is cleared this (or subsequnt)
     * tick events are enabled to generate an alarm event. 
     */
    if ((alarm->rollover) && (_alt_nticks == 0))
    1ac4:	80800403 	ldbu	r2,16(r16)
    1ac8:	10000326 	beq	r2,zero,1ad8 <alt_tick+0x3c>
    1acc:	d0a5df17 	ldw	r2,-26756(gp)
    1ad0:	1000011e 	bne	r2,zero,1ad8 <alt_tick+0x3c>
    {
      alarm->rollover = 0;
    1ad4:	80000405 	stb	zero,16(r16)
    }
    
    /* if the alarm period has expired, make the callback */    
    if ((alarm->time <= _alt_nticks) && (alarm->rollover == 0))
    1ad8:	d0e5df17 	ldw	r3,-26756(gp)
    1adc:	80800217 	ldw	r2,8(r16)
    1ae0:	18801136 	bltu	r3,r2,1b28 <alt_tick+0x8c>
    1ae4:	80800403 	ldbu	r2,16(r16)
    1ae8:	10000f1e 	bne	r2,zero,1b28 <alt_tick+0x8c>
    {
      next_callback = alarm->callback (alarm->context);
    1aec:	80800317 	ldw	r2,12(r16)
    1af0:	81000517 	ldw	r4,20(r16)
    1af4:	103ee83a 	callr	r2
    1af8:	1007883a 	mov	r3,r2

      /* deactivate the alarm if the return value is zero */

      if (next_callback == 0)
    1afc:	1000031e 	bne	r2,zero,1b0c <alt_tick+0x70>
      {
        alt_alarm_stop (alarm);
    1b00:	8009883a 	mov	r4,r16
    1b04:	0001a680 	call	1a68 <alt_alarm_stop>
    1b08:	00000706 	br	1b28 <alt_tick+0x8c>
      }
      else
      {
        alarm->time += next_callback;
    1b0c:	80800217 	ldw	r2,8(r16)
    1b10:	1885883a 	add	r2,r3,r2
    1b14:	80800215 	stw	r2,8(r16)
        /* 
         * If the desired alarm time causes a roll-over, set the rollover
         * flag. This will prevent the subsequent tick event from causing
         * an alarm too early.
         */
        if(alarm->time < _alt_nticks)
    1b18:	d0e5df17 	ldw	r3,-26756(gp)
    1b1c:	10c0022e 	bgeu	r2,r3,1b28 <alt_tick+0x8c>
        {
          alarm->rollover = 1;
    1b20:	00800044 	movi	r2,1
    1b24:	80800405 	stb	r2,16(r16)
    1b28:	8821883a 	mov	r16,r17

  _alt_nticks++;

  /* process the registered callbacks */

  while (alarm != (alt_alarm*) &alt_alarm_list)
    1b2c:	d0a00704 	addi	r2,gp,-32740
    1b30:	80bfe31e 	bne	r16,r2,1ac0 <alt_tick+0x24>
  /* 
   * Update the operating system specific timer facilities.
   */

  ALT_OS_TIME_TICK();
}
    1b34:	dfc00217 	ldw	ra,8(sp)
    1b38:	dc400117 	ldw	r17,4(sp)
    1b3c:	dc000017 	ldw	r16,0(sp)
    1b40:	dec00304 	addi	sp,sp,12
    1b44:	f800283a 	ret

00001b48 <altera_nios2_qsys_irq_init>:
 * To initialize the internal interrupt controller, just clear the IENABLE
 * register so that all possible IRQs are disabled.
 */
void altera_nios2_qsys_irq_init(void) 
{
    NIOS2_WRITE_IENABLE(0);
    1b48:	000170fa 	wrctl	ienable,zero
}
    1b4c:	f800283a 	ret

00001b50 <alt_find_file>:
 * either '/' or '\0' is the prefix of the filename. For example the filename:
 * "/myfilesystem/junk.txt" would match: "/myfilesystem", but not: "/myfile". 
 */
 
alt_dev* alt_find_file (const char* name)
{
    1b50:	defff904 	addi	sp,sp,-28
    1b54:	dfc00615 	stw	ra,24(sp)
    1b58:	dd400515 	stw	r21,20(sp)
    1b5c:	dd000415 	stw	r20,16(sp)
    1b60:	dcc00315 	stw	r19,12(sp)
    1b64:	dc800215 	stw	r18,8(sp)
    1b68:	dc400115 	stw	r17,4(sp)
    1b6c:	dc000015 	stw	r16,0(sp)
    1b70:	2025883a 	mov	r18,r4
  alt_dev* next = (alt_dev*) alt_fs_list.next;   
    1b74:	00800034 	movhi	r2,0
    1b78:	108dce04 	addi	r2,r2,14136
    1b7c:	14400017 	ldw	r17,0(r2)
  /*
   * Check each list entry in turn, until a match is found, or we reach the
   * end of the list (i.e. next winds up pointing back to the list head).
   */ 
 
  while (next != (alt_dev*) &alt_fs_list)
    1b80:	102b883a 	mov	r21,r2
    1b84:	88801626 	beq	r17,r2,1be0 <alt_find_file+0x90>
    1b88:	053fffc4 	movi	r20,-1
    1b8c:	04c00bc4 	movi	r19,47
  {
    len = strlen(next->name);
    1b90:	8c000217 	ldw	r16,8(r17)
    1b94:	8009883a 	mov	r4,r16
    1b98:	0001d600 	call	1d60 <strlen>
    1b9c:	1007883a 	mov	r3,r2
    
    if (next->name[len-1] == '/')
    1ba0:	8085883a 	add	r2,r16,r2
    1ba4:	1505883a 	add	r2,r2,r20
    1ba8:	10800007 	ldb	r2,0(r2)
    1bac:	14c0011e 	bne	r2,r19,1bb4 <alt_find_file+0x64>
    {
      len -= 1;
    1bb0:	1d07883a 	add	r3,r3,r20
    }

    if (((name[len] == '/') || (name[len] == '\0')) && 
    1bb4:	1c85883a 	add	r2,r3,r18
    1bb8:	10800007 	ldb	r2,0(r2)
    1bbc:	14c00126 	beq	r2,r19,1bc4 <alt_find_file+0x74>
    1bc0:	1000051e 	bne	r2,zero,1bd8 <alt_find_file+0x88>
    1bc4:	8009883a 	mov	r4,r16
    1bc8:	900b883a 	mov	r5,r18
    1bcc:	180d883a 	mov	r6,r3
    1bd0:	0001cec0 	call	1cec <memcmp>
    1bd4:	10000326 	beq	r2,zero,1be4 <alt_find_file+0x94>
    {
      /* match found */

      return next;
    }
    next = (alt_dev*) next->llist.next;
    1bd8:	8c400017 	ldw	r17,0(r17)
  /*
   * Check each list entry in turn, until a match is found, or we reach the
   * end of the list (i.e. next winds up pointing back to the list head).
   */ 
 
  while (next != (alt_dev*) &alt_fs_list)
    1bdc:	8d7fec1e 	bne	r17,r21,1b90 <alt_find_file+0x40>
    1be0:	0023883a 	mov	r17,zero
  }
  
  /* No match found */
  
  return NULL;     
}
    1be4:	8805883a 	mov	r2,r17
    1be8:	dfc00617 	ldw	ra,24(sp)
    1bec:	dd400517 	ldw	r21,20(sp)
    1bf0:	dd000417 	ldw	r20,16(sp)
    1bf4:	dcc00317 	ldw	r19,12(sp)
    1bf8:	dc800217 	ldw	r18,8(sp)
    1bfc:	dc400117 	ldw	r17,4(sp)
    1c00:	dc000017 	ldw	r16,0(sp)
    1c04:	dec00704 	addi	sp,sp,28
    1c08:	f800283a 	ret

00001c0c <alt_get_fd>:
 * the offset of the file descriptor within the file descriptor array). A
 * negative value indicates failure.
 */

int alt_get_fd (alt_dev* dev)
{
    1c0c:	000b883a 	mov	r5,zero
    1c10:	00c00034 	movhi	r3,0
    1c14:	18cc6d04 	addi	r3,r3,12724
    1c18:	02000304 	movi	r8,12
    1c1c:	02400034 	movhi	r9,0
    1c20:	4a4dd204 	addi	r9,r9,14152
    1c24:	01c00044 	movi	r7,1
    1c28:	01800804 	movi	r6,32
   * therefore reduce contention on the alt_fd_list_lock semaphore. 
   */

  for (i = 0; i < ALT_MAX_FD; i++)
  {
    if (!alt_fd_list[i].dev)
    1c2c:	18800017 	ldw	r2,0(r3)
    1c30:	10000c1e 	bne	r2,zero,1c64 <alt_get_fd+0x58>
    {
      alt_fd_list[i].dev = dev;
    1c34:	2a05383a 	mul	r2,r5,r8
    1c38:	00c00034 	movhi	r3,0
    1c3c:	18cc6d04 	addi	r3,r3,12724
    1c40:	10c5883a 	add	r2,r2,r3
    1c44:	11000015 	stw	r4,0(r2)
      if (i > alt_max_fd)
    1c48:	48800017 	ldw	r2,0(r9)
    1c4c:	11400216 	blt	r2,r5,1c58 <alt_get_fd+0x4c>
    1c50:	2805883a 	mov	r2,r5
    1c54:	f800283a 	ret
      {
        alt_max_fd = i;
    1c58:	49400015 	stw	r5,0(r9)
    1c5c:	2805883a 	mov	r2,r5
    1c60:	f800283a 	ret
   * indicates the highest file descriptor ever allocated. This is used to
   * improve efficency when searching the file descriptor list, and 
   * therefore reduce contention on the alt_fd_list_lock semaphore. 
   */

  for (i = 0; i < ALT_MAX_FD; i++)
    1c64:	29cb883a 	add	r5,r5,r7
    1c68:	1a07883a 	add	r3,r3,r8
    1c6c:	29bfef1e 	bne	r5,r6,1c2c <alt_get_fd+0x20>
    1c70:	00bffa04 	movi	r2,-24
   */

  ALT_SEM_POST(alt_fd_list_lock);

  return rc;
}
    1c74:	f800283a 	ret

00001c78 <alt_icache_flush>:
  if (len > NIOS2_ICACHE_SIZE)
  {
    len = NIOS2_ICACHE_SIZE;
  }

  end = ((char*) start) + len;
    1c78:	2007883a 	mov	r3,r4
    1c7c:	00840004 	movi	r2,4096
    1c80:	1140012e 	bgeu	r2,r5,1c88 <alt_icache_flush+0x10>
    1c84:	100b883a 	mov	r5,r2
    1c88:	194b883a 	add	r5,r3,r5

  for (i = start; i < end; i+= NIOS2_ICACHE_LINE_SIZE)
    1c8c:	1940042e 	bgeu	r3,r5,1ca0 <alt_icache_flush+0x28>
    1c90:	00800804 	movi	r2,32
  { 
    __asm__ volatile ("flushi %0" :: "r" (i)); 
    1c94:	1800603a 	flushi	r3
    len = NIOS2_ICACHE_SIZE;
  }

  end = ((char*) start) + len;

  for (i = start; i < end; i+= NIOS2_ICACHE_LINE_SIZE)
    1c98:	1887883a 	add	r3,r3,r2
    1c9c:	197ffd36 	bltu	r3,r5,1c94 <alt_icache_flush+0x1c>
   * For an unaligned flush request, we've got one more line left.
   * Note that this is dependent on NIOS2_ICACHE_LINE_SIZE to be a 
   * multiple of 2 (which it always is).
   */

  if (((alt_u32) start) & (NIOS2_ICACHE_LINE_SIZE - 1))
    1ca0:	208007cc 	andi	r2,r4,31
    1ca4:	10000126 	beq	r2,zero,1cac <alt_icache_flush+0x34>
  {
    __asm__ volatile ("flushi %0" :: "r" (i));
    1ca8:	1800603a 	flushi	r3
  /* 
   * Having flushed the cache, flush any stale instructions in the 
   * pipeline 
   */

  __asm__ volatile ("flushp");
    1cac:	0000203a 	flushp

#endif /* NIOS2_ICACHE_SIZE > 0 */
}
    1cb0:	f800283a 	ret

00001cb4 <exit>:
    1cb4:	defffe04 	addi	sp,sp,-8
    1cb8:	000b883a 	mov	r5,zero
    1cbc:	dc000015 	stw	r16,0(sp)
    1cc0:	dfc00115 	stw	ra,4(sp)
    1cc4:	2021883a 	mov	r16,r4
    1cc8:	0001dd80 	call	1dd8 <__call_exitprocs>
    1ccc:	00800034 	movhi	r2,0
    1cd0:	108dd704 	addi	r2,r2,14172
    1cd4:	11000017 	ldw	r4,0(r2)
    1cd8:	20800f17 	ldw	r2,60(r4)
    1cdc:	10000126 	beq	r2,zero,1ce4 <exit+0x30>
    1ce0:	103ee83a 	callr	r2
    1ce4:	8009883a 	mov	r4,r16
    1ce8:	0001f880 	call	1f88 <_exit>

00001cec <memcmp>:
    1cec:	00c000c4 	movi	r3,3
    1cf0:	1980032e 	bgeu	r3,r6,1d00 <memcmp+0x14>
    1cf4:	2144b03a 	or	r2,r4,r5
    1cf8:	10c4703a 	and	r2,r2,r3
    1cfc:	10000f26 	beq	r2,zero,1d3c <memcmp+0x50>
    1d00:	31ffffc4 	addi	r7,r6,-1
    1d04:	3000061e 	bne	r6,zero,1d20 <memcmp+0x34>
    1d08:	00000a06 	br	1d34 <memcmp+0x48>
    1d0c:	39ffffc4 	addi	r7,r7,-1
    1d10:	00bfffc4 	movi	r2,-1
    1d14:	21000044 	addi	r4,r4,1
    1d18:	29400044 	addi	r5,r5,1
    1d1c:	38800526 	beq	r7,r2,1d34 <memcmp+0x48>
    1d20:	20c00003 	ldbu	r3,0(r4)
    1d24:	28800003 	ldbu	r2,0(r5)
    1d28:	18bff826 	beq	r3,r2,1d0c <memcmp+0x20>
    1d2c:	1885c83a 	sub	r2,r3,r2
    1d30:	f800283a 	ret
    1d34:	0005883a 	mov	r2,zero
    1d38:	f800283a 	ret
    1d3c:	180f883a 	mov	r7,r3
    1d40:	20c00017 	ldw	r3,0(r4)
    1d44:	28800017 	ldw	r2,0(r5)
    1d48:	18bfed1e 	bne	r3,r2,1d00 <memcmp+0x14>
    1d4c:	31bfff04 	addi	r6,r6,-4
    1d50:	21000104 	addi	r4,r4,4
    1d54:	29400104 	addi	r5,r5,4
    1d58:	39bff936 	bltu	r7,r6,1d40 <memcmp+0x54>
    1d5c:	003fe806 	br	1d00 <memcmp+0x14>

00001d60 <strlen>:
    1d60:	208000cc 	andi	r2,r4,3
    1d64:	2011883a 	mov	r8,r4
    1d68:	1000161e 	bne	r2,zero,1dc4 <strlen+0x64>
    1d6c:	20c00017 	ldw	r3,0(r4)
    1d70:	017fbff4 	movhi	r5,65279
    1d74:	297fbfc4 	addi	r5,r5,-257
    1d78:	01e02074 	movhi	r7,32897
    1d7c:	39e02004 	addi	r7,r7,-32640
    1d80:	1945883a 	add	r2,r3,r5
    1d84:	11c4703a 	and	r2,r2,r7
    1d88:	00c6303a 	nor	r3,zero,r3
    1d8c:	1886703a 	and	r3,r3,r2
    1d90:	18000c1e 	bne	r3,zero,1dc4 <strlen+0x64>
    1d94:	280d883a 	mov	r6,r5
    1d98:	380b883a 	mov	r5,r7
    1d9c:	21000104 	addi	r4,r4,4
    1da0:	20800017 	ldw	r2,0(r4)
    1da4:	1187883a 	add	r3,r2,r6
    1da8:	1946703a 	and	r3,r3,r5
    1dac:	0084303a 	nor	r2,zero,r2
    1db0:	10c4703a 	and	r2,r2,r3
    1db4:	103ff926 	beq	r2,zero,1d9c <strlen+0x3c>
    1db8:	20800007 	ldb	r2,0(r4)
    1dbc:	10000326 	beq	r2,zero,1dcc <strlen+0x6c>
    1dc0:	21000044 	addi	r4,r4,1
    1dc4:	20800007 	ldb	r2,0(r4)
    1dc8:	103ffd1e 	bne	r2,zero,1dc0 <strlen+0x60>
    1dcc:	2205c83a 	sub	r2,r4,r8
    1dd0:	f800283a 	ret

00001dd4 <register_fini>:
    1dd4:	f800283a 	ret

00001dd8 <__call_exitprocs>:
    1dd8:	00800034 	movhi	r2,0
    1ddc:	108dd704 	addi	r2,r2,14172
    1de0:	10800017 	ldw	r2,0(r2)
    1de4:	defff304 	addi	sp,sp,-52
    1de8:	df000b15 	stw	fp,44(sp)
    1dec:	d8800115 	stw	r2,4(sp)
    1df0:	00800034 	movhi	r2,0
    1df4:	10800004 	addi	r2,r2,0
    1df8:	1005003a 	cmpeq	r2,r2,zero
    1dfc:	d8800215 	stw	r2,8(sp)
    1e00:	d8800117 	ldw	r2,4(sp)
    1e04:	dd400815 	stw	r21,32(sp)
    1e08:	dd000715 	stw	r20,28(sp)
    1e0c:	10805204 	addi	r2,r2,328
    1e10:	dfc00c15 	stw	ra,48(sp)
    1e14:	ddc00a15 	stw	r23,40(sp)
    1e18:	dd800915 	stw	r22,36(sp)
    1e1c:	dcc00615 	stw	r19,24(sp)
    1e20:	dc800515 	stw	r18,20(sp)
    1e24:	dc400415 	stw	r17,16(sp)
    1e28:	dc000315 	stw	r16,12(sp)
    1e2c:	282b883a 	mov	r21,r5
    1e30:	2039883a 	mov	fp,r4
    1e34:	d8800015 	stw	r2,0(sp)
    1e38:	2829003a 	cmpeq	r20,r5,zero
    1e3c:	d8800117 	ldw	r2,4(sp)
    1e40:	14405217 	ldw	r17,328(r2)
    1e44:	88001026 	beq	r17,zero,1e88 <__call_exitprocs+0xb0>
    1e48:	ddc00017 	ldw	r23,0(sp)
    1e4c:	88800117 	ldw	r2,4(r17)
    1e50:	8c802204 	addi	r18,r17,136
    1e54:	143fffc4 	addi	r16,r2,-1
    1e58:	80000916 	blt	r16,zero,1e80 <__call_exitprocs+0xa8>
    1e5c:	05bfffc4 	movi	r22,-1
    1e60:	a000151e 	bne	r20,zero,1eb8 <__call_exitprocs+0xe0>
    1e64:	8409883a 	add	r4,r16,r16
    1e68:	2105883a 	add	r2,r4,r4
    1e6c:	1485883a 	add	r2,r2,r18
    1e70:	10c02017 	ldw	r3,128(r2)
    1e74:	a8c01126 	beq	r21,r3,1ebc <__call_exitprocs+0xe4>
    1e78:	843fffc4 	addi	r16,r16,-1
    1e7c:	85bff81e 	bne	r16,r22,1e60 <__call_exitprocs+0x88>
    1e80:	d8800217 	ldw	r2,8(sp)
    1e84:	10003126 	beq	r2,zero,1f4c <__call_exitprocs+0x174>
    1e88:	dfc00c17 	ldw	ra,48(sp)
    1e8c:	df000b17 	ldw	fp,44(sp)
    1e90:	ddc00a17 	ldw	r23,40(sp)
    1e94:	dd800917 	ldw	r22,36(sp)
    1e98:	dd400817 	ldw	r21,32(sp)
    1e9c:	dd000717 	ldw	r20,28(sp)
    1ea0:	dcc00617 	ldw	r19,24(sp)
    1ea4:	dc800517 	ldw	r18,20(sp)
    1ea8:	dc400417 	ldw	r17,16(sp)
    1eac:	dc000317 	ldw	r16,12(sp)
    1eb0:	dec00d04 	addi	sp,sp,52
    1eb4:	f800283a 	ret
    1eb8:	8409883a 	add	r4,r16,r16
    1ebc:	88c00117 	ldw	r3,4(r17)
    1ec0:	2105883a 	add	r2,r4,r4
    1ec4:	1445883a 	add	r2,r2,r17
    1ec8:	18ffffc4 	addi	r3,r3,-1
    1ecc:	11800217 	ldw	r6,8(r2)
    1ed0:	1c001526 	beq	r3,r16,1f28 <__call_exitprocs+0x150>
    1ed4:	10000215 	stw	zero,8(r2)
    1ed8:	303fe726 	beq	r6,zero,1e78 <__call_exitprocs+0xa0>
    1edc:	00c00044 	movi	r3,1
    1ee0:	1c06983a 	sll	r3,r3,r16
    1ee4:	90804017 	ldw	r2,256(r18)
    1ee8:	8cc00117 	ldw	r19,4(r17)
    1eec:	1884703a 	and	r2,r3,r2
    1ef0:	10001426 	beq	r2,zero,1f44 <__call_exitprocs+0x16c>
    1ef4:	90804117 	ldw	r2,260(r18)
    1ef8:	1884703a 	and	r2,r3,r2
    1efc:	10000c1e 	bne	r2,zero,1f30 <__call_exitprocs+0x158>
    1f00:	2105883a 	add	r2,r4,r4
    1f04:	1485883a 	add	r2,r2,r18
    1f08:	11400017 	ldw	r5,0(r2)
    1f0c:	e009883a 	mov	r4,fp
    1f10:	303ee83a 	callr	r6
    1f14:	88800117 	ldw	r2,4(r17)
    1f18:	98bfc81e 	bne	r19,r2,1e3c <__call_exitprocs+0x64>
    1f1c:	b8800017 	ldw	r2,0(r23)
    1f20:	147fd526 	beq	r2,r17,1e78 <__call_exitprocs+0xa0>
    1f24:	003fc506 	br	1e3c <__call_exitprocs+0x64>
    1f28:	8c000115 	stw	r16,4(r17)
    1f2c:	003fea06 	br	1ed8 <__call_exitprocs+0x100>
    1f30:	2105883a 	add	r2,r4,r4
    1f34:	1485883a 	add	r2,r2,r18
    1f38:	11000017 	ldw	r4,0(r2)
    1f3c:	303ee83a 	callr	r6
    1f40:	003ff406 	br	1f14 <__call_exitprocs+0x13c>
    1f44:	303ee83a 	callr	r6
    1f48:	003ff206 	br	1f14 <__call_exitprocs+0x13c>
    1f4c:	88800117 	ldw	r2,4(r17)
    1f50:	1000081e 	bne	r2,zero,1f74 <__call_exitprocs+0x19c>
    1f54:	89000017 	ldw	r4,0(r17)
    1f58:	20000726 	beq	r4,zero,1f78 <__call_exitprocs+0x1a0>
    1f5c:	b9000015 	stw	r4,0(r23)
    1f60:	8809883a 	mov	r4,r17
    1f64:	00000000 	call	0 <__alt_mem_RAM>
    1f68:	bc400017 	ldw	r17,0(r23)
    1f6c:	883fb71e 	bne	r17,zero,1e4c <__call_exitprocs+0x74>
    1f70:	003fc506 	br	1e88 <__call_exitprocs+0xb0>
    1f74:	89000017 	ldw	r4,0(r17)
    1f78:	882f883a 	mov	r23,r17
    1f7c:	2023883a 	mov	r17,r4
    1f80:	883fb21e 	bne	r17,zero,1e4c <__call_exitprocs+0x74>
    1f84:	003fc006 	br	1e88 <__call_exitprocs+0xb0>

00001f88 <_exit>:
  __asm__ volatile ("\n0:\n\taddi %0,%0, -1\n\tbgt %0,zero,0b" : : "r" (ALT_CPU_FREQ/100) ); /* Delay for >30ms */

  __asm__ volatile ("break 2" : : "D02"(r2), "D03"(r3) ALT_GMON_DATA );

#else /* !DEBUG_STUB */
  if (r2) {
    1f88:	20000226 	beq	r4,zero,1f94 <_exit+0xc>
    ALT_SIM_FAIL();
    1f8c:	002af070 	cmpltui	zero,zero,43969
    1f90:	00000106 	br	1f98 <_exit+0x10>
  } else {
    ALT_SIM_PASS();
    1f94:	002af0b0 	cmpltui	zero,zero,43970
    1f98:	003fff06 	br	1f98 <_exit+0x10>
    1f9c:	00001dd4 	movui	zero,119
